(lp0
(S'wall'
p1
I33717
tp2
a(S'person'
p3
I23878
tp4
a(S'building'
p5
I16086
tp6
a(S'tree'
p7
I14455
tp8
a(S'car'
p9
I14118
tp10
a(S'chair'
p11
I13527
tp12
a(S'floor'
p13
I11173
tp14
a(S'window'
p15
I9583
tp16
a(S'sky'
p17
I9487
tp18
a(S'picture'
p19
I8824
tp20
a(S'ceiling'
p21
I8516
tp22
a(S'trees'
p23
I7735
tp24
a(S'plant'
p25
I7377
tp26
a(S'cabinet'
p27
I7104
tp28
a(S'ceiling recessed light'
p29
I6755
tp30
a(S'sign'
p31
I6033
tp32
a(S'sidewalk'
p33
I5408
tp34
a(S'road'
p35
I5396
tp36
a(S'table'
p37
I5056
tp38
a(S'cushion'
p39
I4904
tp40
a(S'street light'
p41
I4660
tp42
a(S'door'
p43
I4607
tp44
a(S'curtain'
p45
I4469
tp46
a(S'grass'
p47
I4253
tp48
a(S'plants'
p49
I3590
tp50
a(S'books'
p51
I3543
tp52
a(S'box'
p53
I3436
tp54
a(S'bottle'
p55
I3275
tp56
a(S'table lamp'
p57
I2977
tp58
a(S'light troffer'
p59
I2957
tp60
a(S'mountain'
p61
I2944
tp62
a(S'buildings'
p63
I2764
tp64
a(S'ground'
p65
I2592
tp66
a(S'flowerpot'
p67
I2517
tp68
a(S'bed'
p69
I2418
tp70
a(S'armchair'
p71
I2320
tp72
a(S'fence'
p73
I2278
tp74
a(S'pillow'
p75
I2243
tp76
a(S'flowers'
p77
I2238
tp78
a(S'pole'
p79
I2163
tp80
a(S'vase'
p81
I2121
tp82
a(S'pendant lamp'
p83
I2018
tp84
a(S'ceiling spotlight'
p85
I1940
tp86
a(S'sconce'
p87
I1912
tp88
a(S'column'
p89
I1893
tp90
a(S'sofa'
p91
I1710
tp92
a(S'glass'
p93
I1709
tp94
a(S'night table'
p95
I1681
tp96
a(S'outlet'
p97
I1633
tp98
a(S'mirror'
p99
I1598
tp100
a(S'book'
p101
I1540
tp102
a(S'plate'
p103
I1509
tp104
a(S'sink'
p105
I1480
tp106
a(S'shelves'
p107
I1347
tp108
a(S'railing'
p109
I1290
tp110
a(S'desk'
p111
I1262
tp112
a(S'side table'
p113
I1251
tp114
a(S'bench'
p115
I1234
tp116
a(S'pot'
p117
I1212
tp118
a(S'work surface'
p119
I1204
tp120
a(S'stone'
p121
I1192
tp122
a(S'house'
p123
I1145
tp124
a(S'basket'
p125
I1141
tp126
a(S'palm tree'
p127
I1137
tp128
a(S'traffic light'
p129
I1087
tp130
a(S'swivel chair'
p131
I1084
tp132
a(S'seat'
p133
I1081
tp134
a(S'shelf'
p135
I1057
tp136
a(S'steps'
p137
I1055
tp138
a(S'bag'
p139
I1031
tp140
a(S'awning'
p141
I1024
tp142
a(S'fluorescent tube'
p143
I1019
tp144
a(S'towel'
p145
I1003
tp146
a(S'stool'
p147
I994
tp148
a(S'skyscraper'
p149
I970
tp150
a(S'toy'
p151
I963
tp152
a(S'jar'
p153
I962
tp154
a(S'trash can'
p155
I950
tp156
a(S'clock'
p157
I947
tp158
a(S'bowl'
p159
I938
tp160
a(S'coffee table'
p161
I935
tp162
a(S'flag'
p163
I909
tp164
a(S'water'
p165
I885
tp166
a(S'carpet'
p167
I874
tp168
a(S'cars'
p169
I859
tp170
a(S'van'
p171
I814
tp172
a(S'chandelier'
p173
I811
tp174
a(S'food'
p175
I799
tp176
a(S'boxes'
p177
I786
tp178
a(S'paper'
p179
I782
tp180
a(S'sea water'
p181
I780
tp182
a(S'field'
p183
I776
tp184
a(S'candle holder'
p185
I775
tp186
a(S'stand'
p187
I767
tp188
a(S'staircase'
p189
I759
tp190
a(S'rock'
p191
I757
tp192
a(S'path'
p193
I747
tp194
a(S'seats'
p195
I727
tp196
a(S'boat'
p197
I726
tp198
a(S'tray'
p199
I723
tp200
a(S'poster'
p201
I706
tp202
a(S'brand name'
p203
I705
tp204
a(S'blind'
p205
I699
tp206
a(S'bushes'
p207
I697
tp208
a(S'television'
p209
I693
tp210
a(S'ball'
p211
I683
tp212
a(S'handrail'
p213
I682
tp214
a(S'truck'
p215
I668
tp216
a(S'rug'
p217
I637
tp218
a(S'motorbike'
p219
I627
tp220
a(S'figurine'
p221
I623
tp222
a(S'monitor'
p223
I601
tp224
a(S'floor lamp'
p225
I588
tp226
a(S'air conditioning'
p227
I582
tp228
a(S'bicycle'
p229
I568
tp230
a(S'rocks'
p231
I566
tp232
a(S'umbrella'
p233
I543
tp234
a(S'people'
p235
I542
tp236
a(S'sculpture'
p237
I536
tp238
a(S'fruit'
p239
I534
tp240
a(S'bookcase'
p241
I529
tp242
a(S'telephone'
p243
I525
tp244
a(S'animal'
p245
I522
tp246
a(S'fireplace'
p247
I508
tp248
a(S'computer'
p249
I507
tp250
a(S'wall spotlight'
p251
I504
tp252
a(S'bucket'
p253
I503
tp254
a(S'bus'
p255
I477
tp256
a(S'double door'
p257
I471
tp258
a(S'counter'
p259
I467
tp260
a(S'toilet'
p261
I462
tp262
a(S'refrigerator'
p263
I460
tp264
a(S'napkin'
p265
I454
tp266
a(S'bathtub'
p267
I443
tp268
a(S'screen'
p269
I441
tp270
a(S'text'
p271
I438
tp272
a(S'ottoman'
p273
I433
tp274
a(S'wardrobe'
p275
I429
tp276
a(S'shoe'
p277
I422
tp278
a(S'ceiling fan'
p279
I399
tp280
a(S'can'
p281
I398
tp282
a(S'pane'
p283
I397
tp284
a(S'chest of drawers'
p285
I392
tp286
a(S'mug'
p287
I390
tp288
a(S'manhole'
p289
I386
tp290
a(S'river water'
p291
I384
tp292
a(S'countertop'
p293
I381
tp294
a(S'microwave'
p295
I374
tp296
a(S'hat'
p297
I361
tp298
a(S'stones'
p299
I358
tp300
a(S'switch'
p301
I357
tp302
a(S'flush mount light'
p303
I355
tp304
a(S'light switch'
p305
I354
tp306
a(S'container'
p307
I354
tp308
a(S'beam'
p309
I351
tp310
a(S'step'
p311
I350
tp312
a(S'shoes'
p313
I339
tp314
a(S'desk lamp'
p315
I337
tp316
a(S'door frame'
p317
I336
tp318
a(S'gate'
p319
I336
tp320
a(S'hill'
p321
I333
tp322
a(S'curb'
p323
I331
tp324
a(S'speaker'
p325
I330
tp326
a(S'purse'
p327
I329
tp328
a(S'magazine'
p329
I327
tp330
a(S'snow'
p331
I327
tp332
a(S'candle'
p333
I326
tp334
a(S'barrel'
p335
I322
tp336
a(S'pool ball'
p337
I319
tp338
a(S'bridge'
p339
I318
tp340
a(S'cabinets'
p341
I313
tp342
a(S'airplane'
p343
I311
tp344
a(S'bottles'
p345
I309
tp346
a(S'bulletin board'
p347
I308
tp348
a(S'stove'
p349
I302
tp350
a(S'hedge'
p351
I298
tp352
a(S'range'
p353
I295
tp354
a(S'extractor hood'
p355
I295
tp356
a(S'central reservation'
p357
I281
tp358
a(S'sand beach'
p359
I278
tp360
a(S'blanket'
p361
I278
tp362
a(S'land'
p363
I275
tp364
a(S'oven'
p365
I272
tp366
a(S'dresser'
p367
I271
tp368
a(S'board'
p369
I271
tp370
a(S'dishwasher'
p371
I270
tp372
a(S'magazines'
p373
I270
tp374
a(S'pipe'
p375
I268
tp376
a(S'suitcase'
p377
I267
tp378
a(S'clothes'
p379
I266
tp380
a(S'billiard table'
p381
I264
tp382
a(S'fruits'
p383
I260
tp384
a(S'pitcher'
p385
I259
tp386
a(S'grille'
p387
I252
tp388
a(S'place mat'
p389
I252
tp390
a(S'deck chair'
p391
I251
tp392
a(S'bulb'
p393
I249
tp394
a(S'showcase'
p395
I249
tp396
a(S'cup'
p397
I248
tp398
a(S'cake'
p399
I247
tp400
a(S'arcade machine'
p401
I247
tp402
a(S'faucet'
p403
I245
tp404
a(S'drawing'
p405
I243
tp406
a(S'papers'
p407
I241
tp408
a(S'chairs'
p409
I239
tp410
a(S'fish'
p411
I236
tp412
a(S'price tag'
p413
I230
tp414
a(S'semi-flush mount light'
p415
I230
tp416
a(S'radiator'
p417
I229
tp418
a(S'bird'
p419
I228
tp420
a(S'banner'
p421
I223
tp422
a(S'coffee maker'
p423
I215
tp424
a(S'parking meter'
p425
I213
tp426
a(S'sneaker'
p427
I212
tp428
a(S'grandstand'
p429
I207
tp430
a(S'backpack'
p431
I206
tp432
a(S'merchandise'
p433
I203
tp434
a(S'teapot'
p435
I202
tp436
a(S'tombstone'
p437
I201
tp438
a(S'divider'
p439
I196
tp440
a(S'pen'
p441
I194
tp442
a(S'jacket'
p443
I194
tp444
a(S'wheel'
p445
I194
tp446
a(S'traffic cone'
p447
I192
tp448
a(S'bar'
p449
I192
tp450
a(S'statue'
p451
I191
tp452
a(S'washing machine'
p453
I190
tp454
a(S'folder'
p455
I189
tp456
a(S'videos'
p457
I188
tp458
a(S'toilet paper'
p459
I188
tp460
a(S'notebook'
p461
I183
tp462
a(S'laptop'
p463
I180
tp464
a(S'aerial'
p465
I179
tp466
a(S'embankment'
p467
I174
tp468
a(S'shower screen'
p469
I169
tp470
a(S'tower'
p471
I167
tp472
a(S'flower'
p473
I166
tp474
a(S'shrub'
p475
I165
tp476
a(S'fire hydrant'
p477
I165
tp478
a(S'soap dispenser'
p479
I161
tp480
a(S'dress'
p481
I160
tp482
a(S'heater'
p483
I160
tp484
a(S'stall'
p485
I158
tp486
a(S'vending machine'
p487
I157
tp488
a(S'teacup'
p489
I157
tp490
a(S'cue'
p491
I155
tp492
a(S'kitchen island'
p493
I154
tp494
a(S'shower'
p495
I154
tp496
a(S'spotlight'
p497
I153
tp498
a(S'remote control'
p499
I150
tp500
a(S'cow'
p501
I149
tp502
a(S'ladder'
p503
I149
tp504
a(S'dock'
p505
I147
tp506
a(S'cakes'
p507
I146
tp508
a(S'sand'
p509
I145
tp510
a(S'crane'
p511
I144
tp512
a(S'curtain rod'
p513
I143
tp514
a(S'stairs'
p515
I143
tp516
a(S'hanger'
p517
I141
tp518
a(S'windows'
p519
I140
tp520
a(S'sideboard'
p521
I140
tp522
a(S'bags'
p523
I139
tp524
a(S'light post'
p525
I139
tp526
a(S'pallet'
p527
I138
tp528
a(S'bread'
p529
I137
tp530
a(S'tank'
p531
I137
tp532
a(S'pottery'
p533
I136
tp534
a(S'tissue box'
p535
I136
tp536
a(S'waterfall'
p537
I135
tp538
a(S'kettle'
p539
I133
tp540
a(S'shirt'
p541
I133
tp542
a(S'dog'
p543
I133
tp544
a(S'towels'
p545
I131
tp546
a(S'cart'
p547
I131
tp548
a(S'projection screen'
p549
I130
tp550
a(S'chest'
p551
I130
tp552
a(S'easel'
p553
I128
tp554
a(S'dishcloth'
p555
I128
tp556
a(S'trousers'
p557
I128
tp558
a(S'mailbox'
p559
I127
tp560
a(S'knife'
p561
I127
tp562
a(S'cap'
p563
I127
tp564
a(S'plates'
p565
I126
tp566
a(S'gravestone'
p567
I126
tp568
a(S'dish'
p569
I125
tp570
a(S'horse'
p571
I123
tp572
a(S'hut'
p573
I123
tp574
a(S'benches'
p575
I118
tp576
a(S'stage'
p577
I117
tp578
a(S'candelabra'
p579
I116
tp580
a(S'air vent'
p581
I115
tp582
a(S'runway'
p583
I114
tp584
a(S'hay roll'
p585
I113
tp586
a(S'dummy'
p587
I113
tp588
a(S'saucepan'
p589
I112
tp590
a(S'microphone'
p591
I112
tp592
a(S'console table'
p593
I112
tp594
a(S'drawer'
p595
I112
tp596
a(S'towel rack'
p597
I111
tp598
a(S'spoon'
p599
I111
tp600
a(S'fork'
p601
I110
tp602
a(S'cubicle'
p603
I110
tp604
a(S'wire'
p605
I109
tp606
a(S'soap'
p607
I108
tp608
a(S'headstone'
p609
I108
tp610
a(S'cross'
p611
I107
tp612
a(S'fountain'
p613
I107
tp614
a(S'torchiere lamp'
p615
I107
tp616
a(S'tin'
p617
I107
tp618
a(S'post'
p619
I107
tp620
a(S'bush'
p621
I107
tp622
a(S'paper towels'
p623
I105
tp624
a(S'printer'
p625
I104
tp626
a(S'balustrade'
p627
I103
tp628
a(S'trunk'
p629
I103
tp630
a(S'binder'
p631
I103
tp632
a(S'bouquet'
p633
I102
tp634
a(S'toys'
p635
I102
tp636
a(S'skylight'
p637
I100
tp638
a(S'platform'
p639
I99
tp640
a(S'scaffolding'
p641
I99
tp642
a(S'satellite dish'
p643
I98
tp644
a(S'tent'
p645
I97
tp646
a(S'music system'
p647
I97
tp648
a(S'cradle'
p649
I96
tp650
a(S'slot machine'
p651
I96
tp652
a(S'shirts'
p653
I96
tp654
a(S'guitar'
p655
I94
tp656
a(S'fan'
p657
I93
tp658
a(S'shrubs'
p659
I93
tp660
a(S'dirt track'
p661
I91
tp662
a(S'telephone booth'
p663
I91
tp664
a(S'canister'
p665
I91
tp666
a(S'skull'
p667
I91
tp668
a(S'ashtray'
p669
I91
tp670
a(S'keyboard'
p671
I91
tp672
a(S'net'
p673
I91
tp674
a(S'boot'
p675
I90
tp676
a(S'label'
p677
I90
tp678
a(S'decoration'
p679
I89
tp680
a(S'chimney'
p681
I89
tp682
a(S'mast'
p683
I89
tp684
a(S'billboard'
p685
I87
tp686
a(S'pillar'
p687
I86
tp688
a(S'knife set'
p689
I86
tp690
a(S'escalator'
p691
I86
tp692
a(S'footbridge'
p693
I84
tp694
a(S'exhibitor'
p695
I84
tp696
a(S'clothes rack'
p697
I83
tp698
a(S'conveyor belt'
p699
I83
tp700
a(S'block'
p701
I82
tp702
a(S'houses'
p703
I82
tp704
a(S'fluorescent tubes'
p705
I82
tp706
a(S'soap dish'
p707
I82
tp708
a(S'sprinkler'
p709
I81
tp710
a(S'trolley'
p711
I81
tp712
a(S'train'
p713
I79
tp714
a(S'filing cabinet'
p715
I79
tp716
a(S'shutter'
p717
I79
tp718
a(S'canopy'
p719
I78
tp720
a(S'swimming pool'
p721
I78
tp722
a(S'boats'
p723
I78
tp724
a(S'glasses'
p725
I76
tp726
a(S'rack'
p727
I76
tp728
a(S'piano'
p729
I75
tp730
a(S'rifle'
p731
I75
tp732
a(S'signs'
p733
I75
tp734
a(S'toaster'
p735
I75
tp736
a(S'rail'
p737
I75
tp738
a(S'lumber'
p739
I74
tp740
a(S'machine'
p741
I74
tp742
a(S'brochures'
p743
I73
tp744
a(S'altar'
p745
I73
tp746
a(S'cloth'
p747
I72
tp748
a(S'coffee cup'
p749
I71
tp750
a(S'shower stall'
p751
I71
tp752
a(S'slot machines'
p753
I71
tp754
a(S'advertisement'
p755
I71
tp756
a(S'tapestry'
p757
I71
tp758
a(S'pedestal'
p759
I71
tp760
a(S'handle'
p761
I69
tp762
a(S'rope'
p763
I69
tp764
a(S'arcades'
p765
I69
tp766
a(S'mountains'
p767
I68
tp768
a(S'sandal'
p769
I68
tp770
a(S'fire extinguisher'
p771
I67
tp772
a(S'number'
p773
I67
tp774
a(S'stick'
p775
I67
tp776
a(S'equipment'
p777
I67
tp778
a(S'ship'
p779
I66
tp780
a(S'blackboard'
p781
I65
tp782
a(S't-shirts'
p783
I65
tp784
a(S'desks'
p785
I64
tp786
a(S'hot tub'
p787
I64
tp788
a(S'railings'
p789
I64
tp790
a(S'duvet'
p791
I64
tp792
a(S'camera'
p793
I63
tp794
a(S't-shirt'
p795
I63
tp796
a(S'sweaters'
p797
I63
tp798
a(S'hen'
p799
I63
tp800
a(S'newspaper'
p801
I63
tp802
a(S'briefcase'
p803
I63
tp804
a(S'palm trees'
p805
I63
tp806
a(S'pack'
p807
I62
tp808
a(S'lake'
p809
I61
tp810
a(S'notebooks'
p811
I61
tp812
a(S'paper cup'
p813
I60
tp814
a(S'brush'
p815
I60
tp816
a(S'mineral'
p817
I60
tp818
a(S'bamboo cane'
p819
I60
tp820
a(S'grand piano'
p821
I59
tp822
a(S'court'
p823
I59
tp824
a(S'soap bottle'
p825
I59
tp826
a(S'basketball hoop'
p827
I59
tp828
a(S'bus stop'
p829
I59
tp830
a(S'arch'
p831
I59
tp832
a(S'cliff'
p833
I58
tp834
a(S'leaf'
p835
I58
tp836
a(S'baby carriage'
p837
I58
tp838
a(S'cash register'
p839
I58
tp840
a(S'sidewalk cafe'
p841
I58
tp842
a(S'balloon'
p843
I57
tp844
a(S'windmill'
p845
I57
tp846
a(S'bell'
p847
I57
tp848
a(S'tube'
p849
I57
tp850
a(S'elevator'
p851
I57
tp852
a(S'lighthouse'
p853
I56
tp854
a(S'plank'
p855
I56
tp856
a(S'mousepad'
p857
I56
tp858
a(S'projector'
p859
I56
tp860
a(S'ice'
p861
I56
tp862
a(S'doors'
p863
I56
tp864
a(S'cactus'
p865
I56
tp866
a(S'baseboard'
p867
I55
tp868
a(S'wall recessed light'
p869
I55
tp870
a(S'boots'
p871
I55
tp872
a(S'forecourt'
p873
I55
tp874
a(S'kiosk'
p875
I54
tp876
a(S'exercise machine'
p877
I54
tp878
a(S'vent'
p879
I53
tp880
a(S'bicycles'
p881
I53
tp882
a(S'scales'
p883
I52
tp884
a(S'jars'
p885
I51
tp886
a(S'utensils canister'
p887
I51
tp888
a(S'rocking chair'
p889
I51
tp890
a(S'cans'
p891
I51
tp892
a(S'balls'
p893
I50
tp894
a(S'packs'
p895
I50
tp896
a(S'vault'
p897
I50
tp898
a(S'heel shoe'
p899
I49
tp900
a(S'candy'
p901
I49
tp902
a(S'planter'
p903
I49
tp904
a(S'shell'
p905
I49
tp906
a(S'meter'
p907
I49
tp908
a(S'casserole'
p909
I49
tp910
a(S'binders'
p911
I49
tp912
a(S'petrol pump'
p913
I49
tp914
a(S'cold storage'
p915
I48
tp916
a(S'skirt'
p917
I48
tp918
a(S'trailer'
p919
I48
tp920
a(S'computer case'
p921
I48
tp922
a(S'table football'
p923
I48
tp924
a(S'mezzanine'
p925
I47
tp926
a(S'motorbikes'
p927
I47
tp928
a(S'trash'
p929
I47
tp930
a(S'map'
p931
I47
tp932
a(S'painting'
p933
I45
tp934
a(S'topiary tree'
p935
I45
tp936
a(S'trays'
p937
I44
tp938
a(S'chain'
p939
I44
tp940
a(S'trophy'
p941
I44
tp942
a(S'sweater'
p943
I44
tp944
a(S'playground'
p945
I43
tp946
a(S'cannon'
p947
I43
tp948
a(S'mouse'
p949
I43
tp950
a(S'ingots'
p951
I42
tp952
a(S'helmet'
p953
I42
tp954
a(S'calendar'
p955
I42
tp956
a(S'jackets'
p957
I42
tp958
a(S'shop window'
p959
I41
tp960
a(S'cutting board'
p961
I41
tp962
a(S'video'
p963
I41
tp964
a(S'hills'
p965
I41
tp966
a(S'barrier'
p967
I41
tp968
a(S'dresses'
p969
I40
tp970
a(S'frying pan'
p971
I40
tp972
a(S'folders'
p973
I40
tp974
a(S'mattress'
p975
I40
tp976
a(S'island'
p977
I40
tp978
a(S'cards'
p979
I40
tp980
a(S'tumble dryer'
p981
I40
tp982
a(S'workbench'
p983
I39
tp984
a(S'controls'
p985
I39
tp986
a(S'berth'
p987
I39
tp988
a(S'sun'
p989
I39
tp990
a(S'railway'
p991
I39
tp992
a(S'plaque'
p993
I39
tp994
a(S'radio'
p995
I39
tp996
a(S'television camera'
p997
I38
tp998
a(S'closet'
p999
I38
tp1000
a(S'stretcher'
p1001
I38
tp1002
a(S'violin'
p1003
I38
tp1004
a(S'tins'
p1005
I38
tp1006
a(S'finger'
p1007
I38
tp1008
a(S'metal shutter'
p1009
I38
tp1010
a(S'meat'
p1011
I38
tp1012
a(S'elevator door'
p1013
I38
tp1014
a(S'deck'
p1015
I38
tp1016
a(S'roof'
p1017
I38
tp1018
a(S'tomb'
p1019
I37
tp1020
a(S'duck'
p1021
I37
tp1022
a(S'grille door'
p1023
I37
tp1024
a(S'bars'
p1025
I37
tp1026
a(S'hangers'
p1027
I37
tp1028
a(S'barrels'
p1029
I37
tp1030
a(S'candies'
p1031
I37
tp1032
a(S'clothes hanging'
p1033
I37
tp1034
a(S'television stand'
p1035
I36
tp1036
a(S'necklace'
p1037
I36
tp1038
a(S'aircraft carrier'
p1039
I36
tp1040
a(S'hanging clothes'
p1041
I36
tp1042
a(S'wood'
p1043
I36
tp1044
a(S'scoreboard'
p1045
I36
tp1046
a(S'brushes'
p1047
I36
tp1048
a(S'curtains'
p1049
I36
tp1050
a(S'desk organizer'
p1051
I35
tp1052
a(S'artificial golf green'
p1053
I35
tp1054
a(S'display board'
p1055
I35
tp1056
a(S'shop'
p1057
I35
tp1058
a(S'sacks'
p1059
I35
tp1060
a(S'ear'
p1061
I34
tp1062
a(S'pictures'
p1063
I34
tp1064
a(S'table tennis'
p1065
I34
tp1066
a(S'bidet'
p1067
I34
tp1068
a(S'tile'
p1069
I34
tp1070
a(S'crock'
p1071
I34
tp1072
a(S'niche'
p1073
I34
tp1074
a(S'dish rack'
p1075
I33
tp1076
a(S'tunnel'
p1077
I33
tp1078
a(S'columns'
p1079
I33
tp1080
a(S'coat'
p1081
I33
tp1082
a(S'traffic lights'
p1083
I33
tp1084
a(S'valley'
p1085
I33
tp1086
a(S'pylon'
p1087
I33
tp1088
a(S'notepad'
p1089
I33
tp1090
a(S'ceiling spotlights'
p1091
I33
tp1092
a(S'floe'
p1093
I33
tp1094
a(S'cabin'
p1095
I32
tp1096
a(S'globe'
p1097
I32
tp1098
a(S'food processor'
p1099
I32
tp1100
a(S'pool'
p1101
I32
tp1102
a(S'ring'
p1103
I32
tp1104
a(S'pitch'
p1105
I32
tp1106
a(S'stands'
p1107
I32
tp1108
a(S'roll'
p1109
I32
tp1110
a(S'smoke'
p1111
I32
tp1112
a(S'leaves'
p1113
I32
tp1114
a(S'diploma'
p1115
I31
tp1116
a(S'lectern'
p1117
I31
tp1118
a(S'hotplate'
p1119
I31
tp1120
a(S'cutlery'
p1121
I31
tp1122
a(S'bowling alley'
p1123
I31
tp1124
a(S'hatchery'
p1125
I31
tp1126
a(S'street sign'
p1127
I31
tp1128
a(S'caravan'
p1129
I31
tp1130
a(S'cookies'
p1131
I31
tp1132
a(S'shelter'
p1133
I31
tp1134
a(S'blinds'
p1135
I31
tp1136
a(S'lockers'
p1137
I31
tp1138
a(S'music stand'
p1139
I31
tp1140
a(S'cane'
p1141
I31
tp1142
a(S'pool balls'
p1143
I31
tp1144
a(S'straw'
p1145
I31
tp1146
a(S'vegetables'
p1147
I30
tp1148
a(S'planks'
p1149
I30
tp1150
a(S'file cabinet'
p1151
I30
tp1152
a(S'decor'
p1153
I30
tp1154
a(S'breads'
p1155
I30
tp1156
a(S'car scrapping'
p1157
I30
tp1158
a(S'hair dryer'
p1159
I30
tp1160
a(S'slope'
p1161
I30
tp1162
a(S'table game'
p1163
I30
tp1164
a(S'cell phone'
p1165
I30
tp1166
a(S'recycling bin'
p1167
I29
tp1168
a(S'scarf'
p1169
I29
tp1170
a(S'cooker'
p1171
I29
tp1172
a(S'ceramic box'
p1173
I29
tp1174
a(S'blender'
p1175
I29
tp1176
a(S'cds'
p1177
I29
tp1178
a(S'seagull'
p1179
I29
tp1180
a(S'towel ring'
p1181
I29
tp1182
a(S'shops'
p1183
I29
tp1184
a(S'spotlights'
p1185
I29
tp1186
a(S'dome'
p1187
I29
tp1188
a(S'track'
p1189
I29
tp1190
a(S'card'
p1191
I29
tp1192
a(S'test'
p1193
I29
tp1194
a(S'folding screen'
p1195
I29
tp1196
a(S'pulpit'
p1197
I29
tp1198
a(S'bowls'
p1199
I29
tp1200
a(S'balcony'
p1201
I28
tp1202
a(S'broom'
p1203
I28
tp1204
a(S'ride'
p1205
I28
tp1206
a(S'bread rolls'
p1207
I28
tp1208
a(S'mill'
p1209
I28
tp1210
a(S'toilet brush'
p1211
I28
tp1212
a(S'headphones'
p1213
I28
tp1214
a(S'ruins'
p1215
I28
tp1216
a(S'punching bag'
p1217
I28
tp1218
a(S'monument'
p1219
I27
tp1220
a(S'hose'
p1221
I27
tp1222
a(S'cage'
p1223
I27
tp1224
a(S'steering wheel'
p1225
I27
tp1226
a(S'podium'
p1227
I27
tp1228
a(S'figure'
p1229
I27
tp1230
a(S'plug'
p1231
I27
tp1232
a(S'altarpiece'
p1233
I27
tp1234
a(S'toothbrush'
p1235
I27
tp1236
a(S'water tower'
p1237
I26
tp1238
a(S'brochure'
p1239
I26
tp1240
a(S'dvd'
p1241
I26
tp1242
a(S'carport'
p1243
I26
tp1244
a(S'machinery'
p1245
I26
tp1246
a(S'slipper'
p1247
I26
tp1248
a(S'harp'
p1249
I26
tp1250
a(S'pond'
p1251
I26
tp1252
a(S'mask'
p1253
I26
tp1254
a(S'nuts'
p1255
I26
tp1256
a(S'tureen'
p1257
I25
tp1258
a(S'pier'
p1259
I25
tp1260
a(S'shanties'
p1261
I25
tp1262
a(S'ramp'
p1263
I25
tp1264
a(S'ice rink'
p1265
I25
tp1266
a(S'structure'
p1267
I25
tp1268
a(S'mobile'
p1269
I25
tp1270
a(S'sweatshirts'
p1271
I25
tp1272
a(S'instrument panel'
p1273
I25
tp1274
a(S'shanty'
p1275
I25
tp1276
a(S'helicopter'
p1277
I25
tp1278
a(S'meat piece'
p1279
I25
tp1280
a(S'carousel'
p1281
I25
tp1282
a(S'magazine rack'
p1283
I25
tp1284
a(S'mat'
p1285
I25
tp1286
a(S'check-in-desk'
p1287
I25
tp1288
a(S'menu'
p1289
I25
tp1290
a(S'target'
p1291
I25
tp1292
a(S'windshield'
p1293
I25
tp1294
a(S'sand dune'
p1295
I24
tp1296
a(S'skittles'
p1297
I24
tp1298
a(S'tennis court'
p1299
I24
tp1300
a(S'frame'
p1301
I24
tp1302
a(S'alarm clock'
p1303
I24
tp1304
a(S'canvas'
p1305
I24
tp1306
a(S'terrace'
p1307
I24
tp1308
a(S'sailboat'
p1309
I24
tp1310
a(S'float'
p1311
I24
tp1312
a(S'sand trap'
p1313
I24
tp1314
a(S'bottle rack'
p1315
I24
tp1316
a(S'alarm'
p1317
I24
tp1318
a(S'locker'
p1319
I24
tp1320
a(S'ceramic pot'
p1321
I23
tp1322
a(S'synthesizer'
p1323
I23
tp1324
a(S'saltcellar'
p1325
I23
tp1326
a(S'puddle'
p1327
I23
tp1328
a(S'tap'
p1329
I23
tp1330
a(S'porch'
p1331
I23
tp1332
a(S'napkin ring'
p1333
I23
tp1334
a(S'safety belt'
p1335
I23
tp1336
a(S'dormer'
p1337
I23
tp1338
a(S'base'
p1339
I23
tp1340
a(S'office partition'
p1341
I23
tp1342
a(S'cable'
p1343
I23
tp1344
a(S'folding door'
p1345
I23
tp1346
a(S'parterre'
p1347
I23
tp1348
a(S'pan'
p1349
I23
tp1350
a(S'wheelchair'
p1351
I23
tp1352
a(S'plant pots'
p1353
I23
tp1354
a(S'pavilion'
p1355
I23
tp1356
a(S'roundabout'
p1357
I23
tp1358
a(S'shovel'
p1359
I22
tp1360
a(S'booth'
p1361
I22
tp1362
a(S'weights'
p1363
I22
tp1364
a(S'bowling pins'
p1365
I22
tp1366
a(S'aqueduct'
p1367
I22
tp1368
a(S'tongs'
p1369
I22
tp1370
a(S'skeleton'
p1371
I22
tp1372
a(S'racket'
p1373
I22
tp1374
a(S'chocolate'
p1375
I22
tp1376
a(S'pallets'
p1377
I22
tp1378
a(S'hook'
p1379
I22
tp1380
a(S'utensils'
p1381
I21
tp1382
a(S'chips'
p1383
I21
tp1384
a(S'chicken'
p1385
I21
tp1386
a(S'crate'
p1387
I21
tp1388
a(S'test tube'
p1389
I21
tp1390
a(S'badge'
p1391
I21
tp1392
a(S'skittle alley'
p1393
I21
tp1394
a(S'control tower'
p1395
I21
tp1396
a(S'stapler'
p1397
I21
tp1398
a(S'fabric'
p1399
I21
tp1400
a(S'weighbridge'
p1401
I21
tp1402
a(S'voting booth'
p1403
I21
tp1404
a(S'sugar bowl'
p1405
I20
tp1406
a(S'spice rack'
p1407
I20
tp1408
a(S'sewing machine'
p1409
I20
tp1410
a(S'pantry'
p1411
I20
tp1412
a(S'slide'
p1413
I20
tp1414
a(S'eyeglasses'
p1415
I20
tp1416
a(S'forklift'
p1417
I20
tp1418
a(S'rocky formation'
p1419
I20
tp1420
a(S'skittle'
p1421
I20
tp1422
a(S'trellis'
p1423
I20
tp1424
a(S'goal'
p1425
I20
tp1426
a(S'trench'
p1427
I20
tp1428
a(S'stalactite'
p1429
I20
tp1430
a(S'pumpkin'
p1431
I20
tp1432
a(S'jam'
p1433
I20
tp1434
a(S'bulldozer'
p1435
I20
tp1436
a(S'security camera'
p1437
I20
tp1438
a(S'file box'
p1439
I20
tp1440
a(S'paintbrush'
p1441
I20
tp1442
a(S'hats'
p1443
I20
tp1444
a(S'earrings'
p1445
I19
tp1446
a(S'organ'
p1447
I19
tp1448
a(S'dishes'
p1449
I19
tp1450
a(S'sweatshirt'
p1451
I19
tp1452
a(S'book stand'
p1453
I19
tp1454
a(S'barrel rack'
p1455
I19
tp1456
a(S'bandstand'
p1457
I19
tp1458
a(S'goods'
p1459
I19
tp1460
a(S'closet rod'
p1461
I19
tp1462
a(S'brick'
p1463
I19
tp1464
a(S'salt'
p1465
I19
tp1466
a(S'elephant'
p1467
I19
tp1468
a(S'wheelbarrow'
p1469
I19
tp1470
a(S'chess'
p1471
I19
tp1472
a(S'foodstuffs'
p1473
I19
tp1474
a(S'branch'
p1475
I18
tp1476
a(S'sack'
p1477
I18
tp1478
a(S'iron tubes'
p1479
I18
tp1480
a(S'machine gun'
p1481
I18
tp1482
a(S'paddle'
p1483
I18
tp1484
a(S'place card'
p1485
I18
tp1486
a(S'pelt'
p1487
I18
tp1488
a(S'petal'
p1489
I18
tp1490
a(S'medicines'
p1491
I18
tp1492
a(S'plastic'
p1493
I18
tp1494
a(S'cat'
p1495
I18
tp1496
a(S'club'
p1497
I18
tp1498
a(S'vineyard'
p1499
I18
tp1500
a(S'service station'
p1501
I18
tp1502
a(S'star'
p1503
I17
tp1504
a(S'boards'
p1505
I17
tp1506
a(S'cells'
p1507
I17
tp1508
a(S'greenhouse'
p1509
I17
tp1510
a(S'dam'
p1511
I17
tp1512
a(S'shopping cart'
p1513
I17
tp1514
a(S'pipes'
p1515
I17
tp1516
a(S'steam shovel'
p1517
I17
tp1518
a(S'gravel'
p1519
I17
tp1520
a(S'files'
p1521
I17
tp1522
a(S'paper cups'
p1523
I17
tp1524
a(S'table runner'
p1525
I17
tp1526
a(S'patio'
p1527
I17
tp1528
a(S'tripod'
p1529
I17
tp1530
a(S'wires'
p1531
I17
tp1532
a(S'parking'
p1533
I17
tp1534
a(S'reel'
p1535
I17
tp1536
a(S'watchtower'
p1537
I17
tp1538
a(S'sheep'
p1539
I17
tp1540
a(S'extractor fan'
p1541
I17
tp1542
a(S'tracks'
p1543
I17
tp1544
a(S'washing machines'
p1545
I17
tp1546
a(S'paper filer'
p1547
I17
tp1548
a(S'toilet paper holder'
p1549
I17
tp1550
a(S'wall spotlights'
p1551
I17
tp1552
a(S'pepper'
p1553
I16
tp1554
a(S'panel'
p1555
I16
tp1556
a(S'tables'
p1557
I16
tp1558
a(S'golf club'
p1559
I16
tp1560
a(S'paper roll'
p1561
I16
tp1562
a(S'pack of snuff'
p1563
I16
tp1564
a(S'embrasure'
p1565
I16
tp1566
a(S'lava'
p1567
I16
tp1568
a(S'tractor'
p1569
I16
tp1570
a(S'water chute'
p1571
I16
tp1572
a(S'cargo'
p1573
I16
tp1574
a(S'support'
p1575
I16
tp1576
a(S'excavator'
p1577
I16
tp1578
a(S'scissors'
p1579
I16
tp1580
a(S'dolphin'
p1581
I16
tp1582
a(S'luggage'
p1583
I16
tp1584
a(S'pig'
p1585
I15
tp1586
a(S'pots'
p1587
I15
tp1588
a(S'pendant'
p1589
I15
tp1590
a(S'henhouse'
p1591
I15
tp1592
a(S'candy bag'
p1593
I15
tp1594
a(S'tools'
p1595
I15
tp1596
a(S'wallet'
p1597
I15
tp1598
a(S'bread roll'
p1599
I15
tp1600
a(S'straw bale'
p1601
I15
tp1602
a(S'ticket counter'
p1603
I15
tp1604
a(S'sneakers'
p1605
I15
tp1606
a(S'swimming pool ladder'
p1607
I15
tp1608
a(S'clothespin'
p1609
I15
tp1610
a(S'dental chair'
p1611
I15
tp1612
a(S'fairground ride'
p1613
I15
tp1614
a(S'stalagmite'
p1615
I15
tp1616
a(S'telescope'
p1617
I15
tp1618
a(S'inflatable glove'
p1619
I15
tp1620
a(S'postcard'
p1621
I15
tp1622
a(S'gates'
p1623
I15
tp1624
a(S'drain'
p1625
I15
tp1626
a(S'iceberg'
p1627
I15
tp1628
a(S'packet'
p1629
I15
tp1630
a(S'quay'
p1631
I15
tp1632
a(S'entry phone'
p1633
I15
tp1634
a(S'ice bucket'
p1635
I15
tp1636
a(S'rocky formations'
p1637
I15
tp1638
a(S'dashboard'
p1639
I15
tp1640
a(S'flip flop'
p1641
I15
tp1642
a(S'stalls'
p1643
I15
tp1644
a(S'buttons'
p1645
I14
tp1646
a(S'watering can'
p1647
I14
tp1648
a(S'forest'
p1649
I14
tp1650
a(S'baskets'
p1651
I14
tp1652
a(S'floor spotlight'
p1653
I14
tp1654
a(S'barbecue'
p1655
I14
tp1656
a(S'desert'
p1657
I14
tp1658
a(S'seating'
p1659
I14
tp1660
a(S'hairdresser chair'
p1661
I14
tp1662
a(S'headstones'
p1663
I14
tp1664
a(S'lantern'
p1665
I14
tp1666
a(S'cows'
p1667
I14
tp1668
a(S'barricade'
p1669
I14
tp1670
a(S'shore'
p1671
I14
tp1672
a(S'girder'
p1673
I14
tp1674
a(S'chip'
p1675
I14
tp1676
a(S'semidesert ground'
p1677
I14
tp1678
a(S'bathrobe'
p1679
I14
tp1680
a(S'fire alarm'
p1681
I14
tp1682
a(S'sponge'
p1683
I14
tp1684
a(S'ski lift'
p1685
I14
tp1686
a(S'roller coaster'
p1687
I14
tp1688
a(S'aquarium'
p1689
I14
tp1690
a(S'tool'
p1691
I14
tp1692
a(S'set of instruments'
p1693
I14
tp1694
a(S'hole'
p1695
I14
tp1696
a(S'pigeonhole'
p1697
I14
tp1698
a(S'swings'
p1699
I14
tp1700
a(S'inflatable bounce game'
p1701
I14
tp1702
a(S'beer machine'
p1703
I14
tp1704
a(S'containers'
p1705
I13
tp1706
a(S'molding'
p1707
I13
tp1708
a(S'lock'
p1709
I13
tp1710
a(S'poles'
p1711
I13
tp1712
a(S'hair spray'
p1713
I13
tp1714
a(S'plateau'
p1715
I13
tp1716
a(S'margarine'
p1717
I13
tp1718
a(S'trestle'
p1719
I13
tp1720
a(S'spray'
p1721
I13
tp1722
a(S'water wheel'
p1723
I13
tp1724
a(S'log'
p1725
I13
tp1726
a(S'stuffed animal head'
p1727
I13
tp1728
a(S'gas station'
p1729
I13
tp1730
a(S'bracelet'
p1731
I13
tp1732
a(S'table cloth'
p1733
I13
tp1734
a(S'material rolls'
p1735
I13
tp1736
a(S'pens'
p1737
I13
tp1738
a(S'sheet'
p1739
I13
tp1740
a(S'monitors'
p1741
I13
tp1742
a(S'trunks'
p1743
I13
tp1744
a(S'tablecloth'
p1745
I13
tp1746
a(S'trash bag'
p1747
I13
tp1748
a(S'mitten'
p1749
I13
tp1750
a(S'spade'
p1751
I13
tp1752
a(S'street box'
p1753
I13
tp1754
a(S'tree trunk'
p1755
I13
tp1756
a(S'throne'
p1757
I12
tp1758
a(S'village'
p1759
I12
tp1760
a(S'shed'
p1761
I12
tp1762
a(S'coaster'
p1763
I12
tp1764
a(S'paving stone'
p1765
I12
tp1766
a(S'gutter'
p1767
I12
tp1768
a(S'joist'
p1769
I12
tp1770
a(S'rubble'
p1771
I12
tp1772
a(S'score'
p1773
I12
tp1774
a(S'pack of cigarettes'
p1775
I12
tp1776
a(S'hobby-horse'
p1777
I12
tp1778
a(S'vcr'
p1779
I12
tp1780
a(S'toll booth'
p1781
I12
tp1782
a(S'shower curtain'
p1783
I12
tp1784
a(S'floodlights'
p1785
I12
tp1786
a(S'rudder'
p1787
I12
tp1788
a(S'mosque'
p1789
I12
tp1790
a(S'scrub'
p1791
I12
tp1792
a(S'stalactites'
p1793
I12
tp1794
a(S'keys'
p1795
I12
tp1796
a(S'catwalk'
p1797
I12
tp1798
a(S'dune'
p1799
I12
tp1800
a(S'pillows'
p1801
I12
tp1802
a(S'big top'
p1803
I12
tp1804
a(S'loudspeaker'
p1805
I12
tp1806
a(S'post-it'
p1807
I12
tp1808
a(S'shipyard'
p1809
I12
tp1810
a(S'reels'
p1811
I12
tp1812
a(S'candles'
p1813
I12
tp1814
a(S'badlands'
p1815
I12
tp1816
a(S'newspapers'
p1817
I12
tp1818
a(S'gun'
p1819
I12
tp1820
a(S'flask'
p1821
I12
tp1822
a(S'viaduct'
p1823
I12
tp1824
a(S'skis'
p1825
I12
tp1826
a(S'cover curtain'
p1827
I12
tp1828
a(S'terraces'
p1829
I12
tp1830
a(S'railway tie'
p1831
I12
tp1832
a(S'fog bank'
p1833
I12
tp1834
a(S'bat'
p1835
I12
tp1836
a(S'cigar box'
p1837
I12
tp1838
a(S'atm'
p1839
I12
tp1840
a(S'poncho'
p1841
I12
tp1842
a(S'sinks'
p1843
I12
tp1844
a(S'sandbox'
p1845
I11
tp1846
a(S'stump'
p1847
I11
tp1848
a(S'footpath'
p1849
I11
tp1850
a(S'animals'
p1851
I11
tp1852
a(S'motor'
p1853
I11
tp1854
a(S'arcade'
p1855
I11
tp1856
a(S'bulbs'
p1857
I11
tp1858
a(S'temple'
p1859
I11
tp1860
a(S'towel radiator'
p1861
I11
tp1862
a(S'rubber ring'
p1863
I11
tp1864
a(S'belt'
p1865
I11
tp1866
a(S'firewood'
p1867
I11
tp1868
a(S'paint brushes'
p1869
I11
tp1870
a(S'weeds'
p1871
I11
tp1872
a(S'chair desk'
p1873
I11
tp1874
a(S'urinal'
p1875
I11
tp1876
a(S'pepper shaker'
p1877
I11
tp1878
a(S'buttress'
p1879
I11
tp1880
a(S'lab bench'
p1881
I11
tp1882
a(S'dial'
p1883
I11
tp1884
a(S'kennel'
p1885
I11
tp1886
a(S'flag pole'
p1887
I11
tp1888
a(S'parking lot'
p1889
I11
tp1890
a(S'plate mat'
p1891
I11
tp1892
a(S'vases'
p1893
I11
tp1894
a(S'clothing'
p1895
I11
tp1896
a(S'thermos'
p1897
I11
tp1898
a(S'eaves'
p1899
I11
tp1900
a(S'ground desert'
p1901
I11
tp1902
a(S'garland'
p1903
I11
tp1904
a(S'thermostat'
p1905
I11
tp1906
a(S'sping'
p1907
I11
tp1908
a(S'transformer'
p1909
I11
tp1910
a(S'acropolis'
p1911
I11
tp1912
a(S'hairbrush'
p1913
I11
tp1914
a(S'wood art'
p1915
I11
tp1916
a(S'iron'
p1917
I11
tp1918
a(S'skimmer'
p1919
I11
tp1920
a(S'pumpkins'
p1921
I11
tp1922
a(S'index cards'
p1923
I11
tp1924
a(S'lampshade'
p1925
I11
tp1926
a(S'oar'
p1927
I10
tp1928
a(S'mountain pass'
p1929
I10
tp1930
a(S'socks'
p1931
I10
tp1932
a(S'garage door'
p1933
I10
tp1934
a(S'exercise bike'
p1935
I10
tp1936
a(S'dartboard'
p1937
I10
tp1938
a(S'stereo'
p1939
I10
tp1940
a(S'miniature chair'
p1941
I10
tp1942
a(S'sports bag'
p1943
I10
tp1944
a(S'power point'
p1945
I10
tp1946
a(S'napkins'
p1947
I10
tp1948
a(S'coffin'
p1949
I10
tp1950
a(S'labyrinth'
p1951
I10
tp1952
a(S'fences'
p1953
I10
tp1954
a(S'dvds'
p1955
I10
tp1956
a(S'pinball'
p1957
I10
tp1958
a(S'headstone cross'
p1959
I10
tp1960
a(S'cages'
p1961
I10
tp1962
a(S'witness stand'
p1963
I10
tp1964
a(S'card table'
p1965
I10
tp1966
a(S'clipboard'
p1967
I10
tp1968
a(S'first floor'
p1969
I10
tp1970
a(S'cups'
p1971
I10
tp1972
a(S'cubicles'
p1973
I10
tp1974
a(S'bicycle rack'
p1975
I10
tp1976
a(S'desk mat'
p1977
I10
tp1978
a(S'digital clock'
p1979
I10
tp1980
a(S'wreath'
p1981
I10
tp1982
a(S'landfill'
p1983
I10
tp1984
a(S'label tag'
p1985
I10
tp1986
a(S'wheat'
p1987
I10
tp1988
a(S'centerpiece'
p1989
I10
tp1990
a(S'palette'
p1991
I10
tp1992
a(S'tombstones'
p1993
I10
tp1994
a(S'flyer'
p1995
I10
tp1996
a(S'bullring'
p1997
I10
tp1998
a(S'control panel'
p1999
I10
tp2000
a(S'bookend'
p2001
I10
tp2002
a(S'treadmill'
p2003
I10
tp2004
a(S'vanity'
p2005
I10
tp2006
a(S'caps'
p2007
I10
tp2008
a(S'bread box'
p2009
I10
tp2010
a(S'ham'
p2011
I10
tp2012
a(S'ticket booth'
p2013
I10
tp2014
a(S'shawl'
p2015
I10
tp2016
a(S'runner cloth'
p2017
I10
tp2018
a(S'baptismal font'
p2019
I10
tp2020
a(S'covered bridge'
p2021
I10
tp2022
a(S'ticket window'
p2023
I9
tp2024
a(S'roads'
p2025
I9
tp2026
a(S'well'
p2027
I9
tp2028
a(S'chalk'
p2029
I9
tp2030
a(S'urn'
p2031
I9
tp2032
a(S'tiger'
p2033
I9
tp2034
a(S'rope bridge'
p2035
I9
tp2036
a(S'rainbow'
p2037
I9
tp2038
a(S'canal'
p2039
I9
tp2040
a(S'garbage'
p2041
I9
tp2042
a(S'calculator'
p2043
I9
tp2044
a(S'fire'
p2045
I9
tp2046
a(S'hillside'
p2047
I9
tp2048
a(S'moss'
p2049
I9
tp2050
a(S'cave'
p2051
I9
tp2052
a(S'pet dish'
p2053
I9
tp2054
a(S'grill'
p2055
I9
tp2056
a(S'cpu'
p2057
I9
tp2058
a(S'diving board'
p2059
I9
tp2060
a(S'doll'
p2061
I9
tp2062
a(S'grating'
p2063
I9
tp2064
a(S'ornament'
p2065
I9
tp2066
a(S'fire engine'
p2067
I9
tp2068
a(S'leather'
p2069
I9
tp2070
a(S'suitcases'
p2071
I9
tp2072
a(S'seal'
p2073
I9
tp2074
a(S'coffee pot'
p2075
I9
tp2076
a(S'factory'
p2077
I9
tp2078
a(S'rake'
p2079
I9
tp2080
a(S'observatory'
p2081
I9
tp2082
a(S'creamer'
p2083
I9
tp2084
a(S'control table'
p2085
I9
tp2086
a(S'tanks'
p2087
I9
tp2088
a(S'coral'
p2089
I9
tp2090
a(S'cape'
p2091
I9
tp2092
a(S'arcade machines'
p2093
I9
tp2094
a(S'savanna'
p2095
I9
tp2096
a(S'bleachers'
p2097
I9
tp2098
a(S'tires'
p2099
I9
tp2100
a(S'smoke detector'
p2101
I8
tp2102
a(S'wood blocks'
p2103
I8
tp2104
a(S'ferris wheel'
p2105
I8
tp2106
a(S'scotch tape'
p2107
I8
tp2108
a(S'camel'
p2109
I8
tp2110
a(S'water cooler'
p2111
I8
tp2112
a(S'freight goods'
p2113
I8
tp2114
a(S'umbrellas'
p2115
I8
tp2116
a(S'microscope'
p2117
I8
tp2118
a(S'valve'
p2119
I8
tp2120
a(S'pencil'
p2121
I8
tp2122
a(S'ladle'
p2123
I8
tp2124
a(S'obelisk'
p2125
I8
tp2126
a(S'creeper'
p2127
I8
tp2128
a(S'lemon'
p2129
I8
tp2130
a(S'small table'
p2131
I8
tp2132
a(S'post light'
p2133
I8
tp2134
a(S'seat belt'
p2135
I8
tp2136
a(S'hinge'
p2137
I8
tp2138
a(S'elevator doors'
p2139
I8
tp2140
a(S'stables'
p2141
I8
tp2142
a(S'fireplace utensils'
p2143
I8
tp2144
a(S'wok'
p2145
I8
tp2146
a(S'golf cart'
p2147
I8
tp2148
a(S'cassette'
p2149
I8
tp2150
a(S'stone ball'
p2151
I8
tp2152
a(S'cover'
p2153
I8
tp2154
a(S'ranch'
p2155
I8
tp2156
a(S'feeder'
p2157
I8
tp2158
a(S'cookie'
p2159
I8
tp2160
a(S'notes'
p2161
I8
tp2162
a(S'work table'
p2163
I8
tp2164
a(S'street number'
p2165
I8
tp2166
a(S'ticket office'
p2167
I8
tp2168
a(S'gangway'
p2169
I8
tp2170
a(S'toll gate'
p2171
I8
tp2172
a(S'cables'
p2173
I8
tp2174
a(S'strainer'
p2175
I8
tp2176
a(S'drums'
p2177
I8
tp2178
a(S'padlock'
p2179
I8
tp2180
a(S'pilon'
p2181
I8
tp2182
a(S'sticks'
p2183
I8
tp2184
a(S'confessional booth'
p2185
I8
tp2186
a(S'sofa bed'
p2187
I8
tp2188
a(S'ski'
p2189
I8
tp2190
a(S'goose'
p2191
I8
tp2192
a(S'skip'
p2193
I8
tp2194
a(S'thermometer'
p2195
I8
tp2196
a(S'decanter'
p2197
I8
tp2198
a(S'skirts'
p2199
I8
tp2200
a(S'idol'
p2201
I8
tp2202
a(S'table mat'
p2203
I8
tp2204
a(S'watch'
p2205
I8
tp2206
a(S'cue rack'
p2207
I8
tp2208
a(S'bar lift'
p2209
I8
tp2210
a(S'logo'
p2211
I8
tp2212
a(S'howdah'
p2213
I8
tp2214
a(S'backdrop'
p2215
I8
tp2216
a(S'dye'
p2217
I8
tp2218
a(S'root'
p2219
I8
tp2220
a(S'counters'
p2221
I8
tp2222
a(S'bud'
p2223
I7
tp2224
a(S'funfair'
p2225
I7
tp2226
a(S'antlers'
p2227
I7
tp2228
a(S'water surf'
p2229
I7
tp2230
a(S'potters wheel'
p2231
I7
tp2232
a(S'sill'
p2233
I7
tp2234
a(S'remains'
p2235
I7
tp2236
a(S'button'
p2237
I7
tp2238
a(S'drift ice'
p2239
I7
tp2240
a(S'security door'
p2241
I7
tp2242
a(S'penguin'
p2243
I7
tp2244
a(S'bollard'
p2245
I7
tp2246
a(S'flags'
p2247
I7
tp2248
a(S'floodlight'
p2249
I7
tp2250
a(S'sea'
p2251
I7
tp2252
a(S'vine'
p2253
I7
tp2254
a(S'fax machine'
p2255
I7
tp2256
a(S'font'
p2257
I7
tp2258
a(S'cistern'
p2259
I7
tp2260
a(S'skyscrapers'
p2261
I7
tp2262
a(S'golf bag'
p2263
I7
tp2264
a(S'egg'
p2265
I7
tp2266
a(S'camcorder'
p2267
I7
tp2268
a(S'columbarium niche'
p2269
I7
tp2270
a(S'file'
p2271
I7
tp2272
a(S'sled'
p2273
I7
tp2274
a(S'placard'
p2275
I7
tp2276
a(S'blankets'
p2277
I7
tp2278
a(S'instrument'
p2279
I7
tp2280
a(S'coat of arms'
p2281
I7
tp2282
a(S'engine'
p2283
I7
tp2284
a(S'metal shutters'
p2285
I7
tp2286
a(S'barbed wire'
p2287
I7
tp2288
a(S'grassland'
p2289
I7
tp2290
a(S'curtain cover'
p2291
I7
tp2292
a(S'ironing board'
p2293
I7
tp2294
a(S'cliffs'
p2295
I7
tp2296
a(S'baggage carts'
p2297
I7
tp2298
a(S'pulley'
p2299
I7
tp2300
a(S'newspaper stand'
p2301
I7
tp2302
a(S'envelope'
p2303
I7
tp2304
a(S'bowling ball return'
p2305
I7
tp2306
a(S'bread basket'
p2307
I7
tp2308
a(S'tarmac'
p2309
I7
tp2310
a(S'igloo'
p2311
I7
tp2312
a(S'undergrowth'
p2313
I7
tp2314
a(S'wine rack'
p2315
I7
tp2316
a(S'materials'
p2317
I7
tp2318
a(S'lockgate'
p2319
I7
tp2320
a(S'anchor'
p2321
I7
tp2322
a(S'ropes'
p2323
I7
tp2324
a(S'file cabinets'
p2325
I7
tp2326
a(S'incense'
p2327
I7
tp2328
a(S'packages'
p2329
I7
tp2330
a(S'sail'
p2331
I7
tp2332
a(S'toolbox'
p2333
I7
tp2334
a(S'graphic equalizer'
p2335
I7
tp2336
a(S'articulated lamp'
p2337
I7
tp2338
a(S'cushions'
p2339
I7
tp2340
a(S'comforter'
p2341
I7
tp2342
a(S'stringer'
p2343
I7
tp2344
a(S'cardboard'
p2345
I7
tp2346
a(S'paint brush'
p2347
I7
tp2348
a(S'junk'
p2349
I6
tp2350
a(S'carriage'
p2351
I6
tp2352
a(S'cruet'
p2353
I6
tp2354
a(S'shower tray'
p2355
I6
tp2356
a(S'schoolyard'
p2357
I6
tp2358
a(S'contrabass'
p2359
I6
tp2360
a(S'ski lift cabin'
p2361
I6
tp2362
a(S'console'
p2363
I6
tp2364
a(S'bull'
p2365
I6
tp2366
a(S'airplanes'
p2367
I6
tp2368
a(S'sheep pen'
p2369
I6
tp2370
a(S'drum'
p2371
I6
tp2372
a(S'pagoda'
p2373
I6
tp2374
a(S'buckets'
p2375
I6
tp2376
a(S'playing field'
p2377
I6
tp2378
a(S'tableland'
p2379
I6
tp2380
a(S'auxiliary trolley'
p2381
I6
tp2382
a(S'bidon'
p2383
I6
tp2384
a(S'hard drive'
p2385
I6
tp2386
a(S'umbrella stand'
p2387
I6
tp2388
a(S'plate rack'
p2389
I6
tp2390
a(S'crevasse'
p2391
I6
tp2392
a(S'towel paper'
p2393
I6
tp2394
a(S'wig'
p2395
I6
tp2396
a(S'folding chair'
p2397
I6
tp2398
a(S'floor recessed light'
p2399
I6
tp2400
a(S'ice cone'
p2401
I6
tp2402
a(S'model'
p2403
I6
tp2404
a(S'decorative glass'
p2405
I6
tp2406
a(S'notice board'
p2407
I6
tp2408
a(S'game'
p2409
I6
tp2410
a(S'stripe'
p2411
I6
tp2412
a(S'dressing table'
p2413
I6
tp2414
a(S'blusher brush'
p2415
I6
tp2416
a(S'cave entrance'
p2417
I6
tp2418
a(S'furrow'
p2419
I6
tp2420
a(S'mausoleum'
p2421
I6
tp2422
a(S'beams'
p2423
I6
tp2424
a(S'toll plaza'
p2425
I6
tp2426
a(S'lid'
p2427
I6
tp2428
a(S'jetty'
p2429
I6
tp2430
a(S'weight'
p2431
I6
tp2432
a(S'skywalk'
p2433
I6
tp2434
a(S'salt shaker'
p2435
I6
tp2436
a(S'warship'
p2437
I6
tp2438
a(S'buses'
p2439
I6
tp2440
a(S'birdcage'
p2441
I6
tp2442
a(S'platter'
p2443
I6
tp2444
a(S'sewer'
p2445
I6
tp2446
a(S'street lights'
p2447
I6
tp2448
a(S'walkway'
p2449
I6
tp2450
a(S'package'
p2451
I6
tp2452
a(S'revolving door'
p2453
I6
tp2454
a(S'stools'
p2455
I6
tp2456
a(S'livestock'
p2457
I6
tp2458
a(S'waterway'
p2459
I6
tp2460
a(S'slippers'
p2461
I6
tp2462
a(S'gripper'
p2463
I6
tp2464
a(S'litter basket'
p2465
I6
tp2466
a(S'chaise lounge'
p2467
I6
tp2468
a(S'buffet'
p2469
I6
tp2470
a(S'coconut'
p2471
I6
tp2472
a(S'ski slope'
p2473
I6
tp2474
a(S'bowling pin'
p2475
I6
tp2476
a(S'branches'
p2477
I6
tp2478
a(S'sword'
p2479
I6
tp2480
a(S'water mill'
p2481
I6
tp2482
a(S'strongroom'
p2483
I6
tp2484
a(S'entrance'
p2485
I6
tp2486
a(S'terminal'
p2487
I6
tp2488
a(S'woodcarving'
p2489
I6
tp2490
a(S'bow'
p2491
I6
tp2492
a(S'tricycle'
p2493
I6
tp2494
a(S'skate'
p2495
I6
tp2496
a(S'switches'
p2497
I6
tp2498
a(S'fort'
p2499
I6
tp2500
a(S'window scarf'
p2501
I6
tp2502
a(S'pen set'
p2503
I6
tp2504
a(S'scarfs'
p2505
I6
tp2506
a(S'rider'
p2507
I6
tp2508
a(S'shower door'
p2509
I6
tp2510
a(S'cream tube'
p2511
I6
tp2512
a(S'hammer'
p2513
I6
tp2514
a(S'door bars'
p2515
I6
tp2516
a(S'logs'
p2517
I6
tp2518
a(S'headboard'
p2519
I6
tp2520
a(S'dried herbs'
p2521
I6
tp2522
a(S'bicycle racks'
p2523
I6
tp2524
a(S'blouse'
p2525
I6
tp2526
a(S'canes'
p2527
I6
tp2528
a(S'buoy'
p2529
I5
tp2530
a(S'shower room'
p2531
I5
tp2532
a(S'square'
p2533
I5
tp2534
a(S'sandpit'
p2535
I5
tp2536
a(S'cd'
p2537
I5
tp2538
a(S'massage bed'
p2539
I5
tp2540
a(S'jewelry display'
p2541
I5
tp2542
a(S'key'
p2543
I5
tp2544
a(S'huts'
p2545
I5
tp2546
a(S'hammock'
p2547
I5
tp2548
a(S'envelopes'
p2549
I5
tp2550
a(S'tape'
p2551
I5
tp2552
a(S'mugs'
p2553
I5
tp2554
a(S'spice jar'
p2555
I5
tp2556
a(S'ball rack'
p2557
I5
tp2558
a(S'funnel'
p2559
I5
tp2560
a(S'shampoo'
p2561
I5
tp2562
a(S'shorts'
p2563
I5
tp2564
a(S'business cards'
p2565
I5
tp2566
a(S'ties'
p2567
I5
tp2568
a(S'dvd player'
p2569
I5
tp2570
a(S'necklaces'
p2571
I5
tp2572
a(S'mixer'
p2573
I5
tp2574
a(S'bones'
p2575
I5
tp2576
a(S'drill'
p2577
I5
tp2578
a(S'meat bags'
p2579
I5
tp2580
a(S'rubbish'
p2581
I5
tp2582
a(S'trough'
p2583
I5
tp2584
a(S'posters'
p2585
I5
tp2586
a(S'tarp'
p2587
I5
tp2588
a(S'forge'
p2589
I5
tp2590
a(S'degree certificate'
p2591
I5
tp2592
a(S'photo machine'
p2593
I5
tp2594
a(S'basketball court'
p2595
I5
tp2596
a(S'ornaments'
p2597
I5
tp2598
a(S'doorbell'
p2599
I5
tp2600
a(S'doily'
p2601
I5
tp2602
a(S'building materials'
p2603
I5
tp2604
a(S'vessel'
p2605
I5
tp2606
a(S'art'
p2607
I5
tp2608
a(S'vacuum cleaner'
p2609
I5
tp2610
a(S'park'
p2611
I5
tp2612
a(S'station'
p2613
I5
tp2614
a(S'rails'
p2615
I5
tp2616
a(S'sauna'
p2617
I5
tp2618
a(S'sauce'
p2619
I5
tp2620
a(S'steam room'
p2621
I5
tp2622
a(S'pond water'
p2623
I5
tp2624
a(S'sandwich'
p2625
I5
tp2626
a(S'mechanical shovel'
p2627
I5
tp2628
a(S'screens'
p2629
I5
tp2630
a(S'cues'
p2631
I5
tp2632
a(S'fruit stand'
p2633
I5
tp2634
a(S'cream'
p2635
I5
tp2636
a(S'strawberry'
p2637
I5
tp2638
a(S'jug'
p2639
I5
tp2640
a(S'golf ball'
p2641
I5
tp2642
a(S'gas cylinder'
p2643
I5
tp2644
a(S'moon'
p2645
I5
tp2646
a(S'warehouse'
p2647
I5
tp2648
a(S'ice shelf'
p2649
I5
tp2650
a(S'dvd box'
p2651
I5
tp2652
a(S'soil'
p2653
I5
tp2654
a(S'canoe'
p2655
I5
tp2656
a(S'toothpaste'
p2657
I5
tp2658
a(S'plant box'
p2659
I5
tp2660
a(S'salt marsh'
p2661
I5
tp2662
a(S'driveway'
p2663
I5
tp2664
a(S'terrace cafe'
p2665
I5
tp2666
a(S'city'
p2667
I5
tp2668
a(S'swing'
p2669
I5
tp2670
a(S'till'
p2671
I5
tp2672
a(S'sandbar'
p2673
I5
tp2674
a(S'marker'
p2675
I5
tp2676
a(S'security door frame'
p2677
I5
tp2678
a(S'fish tank'
p2679
I5
tp2680
a(S'ice hockey rink'
p2681
I5
tp2682
a(S'spire'
p2683
I5
tp2684
a(S'skirting board'
p2685
I5
tp2686
a(S'subway'
p2687
I5
tp2688
a(S'packets'
p2689
I5
tp2690
a(S'water ditch'
p2691
I5
tp2692
a(S'tie'
p2693
I5
tp2694
a(S'glacier'
p2695
I5
tp2696
a(S'coat rack'
p2697
I5
tp2698
a(S'rotisserie'
p2699
I5
tp2700
a(S'overhang'
p2701
I5
tp2702
a(S'fern'
p2703
I5
tp2704
a(S'material'
p2705
I5
tp2706
a(S'mantle'
p2707
I5
tp2708
a(S'palisade'
p2709
I5
tp2710
a(S'shaker'
p2711
I5
tp2712
a(S'cool box'
p2713
I5
tp2714
a(S'cooler'
p2715
I5
tp2716
a(S'deck chairs'
p2717
I5
tp2718
a(S'boiler'
p2719
I5
tp2720
a(S'tissue'
p2721
I5
tp2722
a(S'water vapor'
p2723
I5
tp2724
a(S'mesh guard rail'
p2725
I5
tp2726
a(S'canyon'
p2727
I5
tp2728
a(S'salt and pepper'
p2729
I5
tp2730
a(S'wooden wedge'
p2731
I5
tp2732
a(S'sugar'
p2733
I5
tp2734
a(S'earth'
p2735
I5
tp2736
a(S'wind turbine'
p2737
I5
tp2738
a(S'security checkpoint'
p2739
I5
tp2740
a(S'cassettes'
p2741
I5
tp2742
a(S'tallboy'
p2743
I5
tp2744
a(S'flame'
p2745
I5
tp2746
a(S'street market'
p2747
I5
tp2748
a(S'strips'
p2749
I5
tp2750
a(S'bottle pack'
p2751
I5
tp2752
a(S'santa claus'
p2753
I5
tp2754
a(S'office'
p2755
I5
tp2756
a(S'seedbed'
p2757
I5
tp2758
a(S'record player'
p2759
I5
tp2760
a(S'pinecone'
p2761
I5
tp2762
a(S'award'
p2763
I5
tp2764
a(S'jack'
p2765
I5
tp2766
a(S'kennels'
p2767
I5
tp2768
a(S'onions'
p2769
I5
tp2770
a(S'rule'
p2771
I4
tp2772
a(S'pie'
p2773
I4
tp2774
a(S'telegraph pole'
p2775
I4
tp2776
a(S'playground equipment'
p2777
I4
tp2778
a(S'boxing gloves'
p2779
I4
tp2780
a(S'saddle'
p2781
I4
tp2782
a(S'blast furnace'
p2783
I4
tp2784
a(S'traffic cones'
p2785
I4
tp2786
a(S'chick'
p2787
I4
tp2788
a(S'garage'
p2789
I4
tp2790
a(S'scrubland'
p2791
I4
tp2792
a(S'binoculars'
p2793
I4
tp2794
a(S'big wheel'
p2795
I4
tp2796
a(S'manometer'
p2797
I4
tp2798
a(S'motorboat'
p2799
I4
tp2800
a(S'belts'
p2801
I4
tp2802
a(S'cube'
p2803
I4
tp2804
a(S'trolley table'
p2805
I4
tp2806
a(S'grinder'
p2807
I4
tp2808
a(S'feeding trough'
p2809
I4
tp2810
a(S'handbag'
p2811
I4
tp2812
a(S'ice mountain'
p2813
I4
tp2814
a(S'gear'
p2815
I4
tp2816
a(S'tents'
p2817
I4
tp2818
a(S'craps table'
p2819
I4
tp2820
a(S'front'
p2821
I4
tp2822
a(S'hole puncher'
p2823
I4
tp2824
a(S'spatula'
p2825
I4
tp2826
a(S'volleyball court'
p2827
I4
tp2828
a(S'typewriter'
p2829
I4
tp2830
a(S'quonset hut'
p2831
I4
tp2832
a(S'game table'
p2833
I4
tp2834
a(S'gateway'
p2835
I4
tp2836
a(S'mannequin'
p2837
I4
tp2838
a(S'casing'
p2839
I4
tp2840
a(S'microbrewery'
p2841
I4
tp2842
a(S'skating rink'
p2843
I4
tp2844
a(S'moulding'
p2845
I4
tp2846
a(S'dumbbell'
p2847
I4
tp2848
a(S'napkin holder'
p2849
I4
tp2850
a(S'roof rack'
p2851
I4
tp2852
a(S'amphitheater'
p2853
I4
tp2854
a(S'fruit machine'
p2855
I4
tp2856
a(S'webcam'
p2857
I4
tp2858
a(S'covered wagon'
p2859
I4
tp2860
a(S'batting cage'
p2861
I4
tp2862
a(S'heart'
p2863
I4
tp2864
a(S'railroad track'
p2865
I4
tp2866
a(S'glass separation'
p2867
I4
tp2868
a(S'goblet'
p2869
I4
tp2870
a(S'runway strip'
p2871
I4
tp2872
a(S'rim'
p2873
I4
tp2874
a(S'sleeping robe'
p2875
I4
tp2876
a(S'barn'
p2877
I4
tp2878
a(S'gloves'
p2879
I4
tp2880
a(S'silo'
p2881
I4
tp2882
a(S'storm drain'
p2883
I4
tp2884
a(S'plastic cup'
p2885
I4
tp2886
a(S'railroad train'
p2887
I4
tp2888
a(S'dispenser'
p2889
I4
tp2890
a(S'check-in-desks'
p2891
I4
tp2892
a(S'castle'
p2893
I4
tp2894
a(S'car wreck'
p2895
I4
tp2896
a(S'railway engine'
p2897
I4
tp2898
a(S'rifles'
p2899
I4
tp2900
a(S'pans'
p2901
I4
tp2902
a(S'sand dunes'
p2903
I4
tp2904
a(S'sphere'
p2905
I4
tp2906
a(S'butane gas cylinder'
p2907
I4
tp2908
a(S'tarpaulin'
p2909
I4
tp2910
a(S'decorative wood'
p2911
I4
tp2912
a(S'dish soap'
p2913
I4
tp2914
a(S'tools box'
p2915
I4
tp2916
a(S'scanner'
p2917
I4
tp2918
a(S'harness'
p2919
I4
tp2920
a(S'recorder'
p2921
I4
tp2922
a(S'back pillow'
p2923
I4
tp2924
a(S'railroad'
p2925
I4
tp2926
a(S'drawing table'
p2927
I4
tp2928
a(S'money'
p2929
I4
tp2930
a(S'bricks'
p2931
I4
tp2932
a(S'wheels'
p2933
I4
tp2934
a(S'parking place'
p2935
I4
tp2936
a(S'drinking fountain'
p2937
I4
tp2938
a(S'pants'
p2939
I4
tp2940
a(S'games table'
p2941
I4
tp2942
a(S'lighter'
p2943
I4
tp2944
a(S'dice'
p2945
I4
tp2946
a(S'step machine'
p2947
I4
tp2948
a(S'light switches'
p2949
I4
tp2950
a(S'trucks'
p2951
I4
tp2952
a(S'video camera'
p2953
I4
tp2954
a(S'apron'
p2955
I4
tp2956
a(S'towel dispenser'
p2957
I4
tp2958
a(S'curb cut'
p2959
I4
tp2960
a(S'kayak'
p2961
I4
tp2962
a(S'baseball'
p2963
I4
tp2964
a(S'port'
p2965
I4
tp2966
a(S'sun deck'
p2967
I4
tp2968
a(S'magnet'
p2969
I4
tp2970
a(S'coop'
p2971
I4
tp2972
a(S'crates'
p2973
I4
tp2974
a(S'silverware'
p2975
I4
tp2976
a(S'shrine'
p2977
I4
tp2978
a(S'stake'
p2979
I4
tp2980
a(S'pressure gauge'
p2981
I4
tp2982
a(S'alembic'
p2983
I4
tp2984
a(S'reclining chair'
p2985
I4
tp2986
a(S'fish farm water'
p2987
I4
tp2988
a(S'suit hanger'
p2989
I4
tp2990
a(S'flavorings'
p2991
I4
tp2992
a(S'bedspread'
p2993
I4
tp2994
a(S'gravy boat'
p2995
I4
tp2996
a(S'sticker'
p2997
I4
tp2998
a(S'portable fridge'
p2999
I4
tp3000
a(S'steamroller'
p3001
I4
tp3002
a(S'basin'
p3003
I4
tp3004
a(S'games'
p3005
I4
tp3006
a(S'tiles'
p3007
I4
tp3008
a(S'drain pipe'
p3009
I4
tp3010
a(S'chippings'
p3011
I4
tp3012
a(S'icicle'
p3013
I4
tp3014
a(S'postcards'
p3015
I4
tp3016
a(S'paper dishes'
p3017
I4
tp3018
a(S'sacks wall'
p3019
I4
tp3020
a(S'monolith'
p3021
I4
tp3022
a(S'bone'
p3023
I4
tp3024
a(S'racquet'
p3025
I4
tp3026
a(S'dumbbells'
p3027
I4
tp3028
a(S'paint bucket'
p3029
I4
tp3030
a(S'blade'
p3031
I4
tp3032
a(S'rafting'
p3033
I4
tp3034
a(S'machines'
p3035
I4
tp3036
a(S'ledge'
p3037
I3
tp3038
a(S'rose window'
p3039
I3
tp3040
a(S'cars scrapping'
p3041
I3
tp3042
a(S'trolley tray'
p3043
I3
tp3044
a(S'grapevine'
p3045
I3
tp3046
a(S'shaving brush'
p3047
I3
tp3048
a(S'in box'
p3049
I3
tp3050
a(S'shopping carts'
p3051
I3
tp3052
a(S'knob'
p3053
I3
tp3054
a(S'balloons'
p3055
I3
tp3056
a(S'lattice'
p3057
I3
tp3058
a(S'fuel pump'
p3059
I3
tp3060
a(S'andiron'
p3061
I3
tp3062
a(S'stained glass'
p3063
I3
tp3064
a(S'juke box'
p3065
I3
tp3066
a(S'tire'
p3067
I3
tp3068
a(S'cases'
p3069
I3
tp3070
a(S'button panel'
p3071
I3
tp3072
a(S'decorations'
p3073
I3
tp3074
a(S'gasworks'
p3075
I3
tp3076
a(S'skateboard'
p3077
I3
tp3078
a(S'mortar'
p3079
I3
tp3080
a(S'street name'
p3081
I3
tp3082
a(S'shantytown'
p3083
I3
tp3084
a(S'clock radio'
p3085
I3
tp3086
a(S'oxygen tank'
p3087
I3
tp3088
a(S'oranges'
p3089
I3
tp3090
a(S'bunch'
p3091
I3
tp3092
a(S'salt and pepper shakers'
p3093
I3
tp3094
a(S'mold'
p3095
I3
tp3096
a(S'crutch'
p3097
I3
tp3098
a(S'colour board'
p3099
I3
tp3100
a(S'pen holder'
p3101
I3
tp3102
a(S'spices'
p3103
I3
tp3104
a(S'cell'
p3105
I3
tp3106
a(S'gas pedal'
p3107
I3
tp3108
a(S'forks'
p3109
I3
tp3110
a(S'beer pump'
p3111
I3
tp3112
a(S'flock of sheep'
p3113
I3
tp3114
a(S'peach'
p3115
I3
tp3116
a(S'parking entrance'
p3117
I3
tp3118
a(S'housing project'
p3119
I3
tp3120
a(S'petrol pump hose'
p3121
I3
tp3122
a(S'cigarette'
p3123
I3
tp3124
a(S'carousel horse'
p3125
I3
tp3126
a(S'clamp lamp'
p3127
I3
tp3128
a(S'baseball glove'
p3129
I3
tp3130
a(S'glove'
p3131
I3
tp3132
a(S'powder compact'
p3133
I3
tp3134
a(S'industrial robot'
p3135
I3
tp3136
a(S'switch box'
p3137
I3
tp3138
a(S'baby chair'
p3139
I3
tp3140
a(S'external drivers'
p3141
I3
tp3142
a(S'hollow'
p3143
I3
tp3144
a(S'burner'
p3145
I3
tp3146
a(S'merry-go-round'
p3147
I3
tp3148
a(S'barbell'
p3149
I3
tp3150
a(S'electricity box'
p3151
I3
tp3152
a(S'banjo'
p3153
I3
tp3154
a(S'mural'
p3155
I3
tp3156
a(S'oyster bank'
p3157
I3
tp3158
a(S'leash'
p3159
I3
tp3160
a(S'razor'
p3161
I3
tp3162
a(S'corkscrew'
p3163
I3
tp3164
a(S'thread'
p3165
I3
tp3166
a(S'algae'
p3167
I3
tp3168
a(S'cockpit'
p3169
I3
tp3170
a(S'tennis table'
p3171
I3
tp3172
a(S'oil'
p3173
I3
tp3174
a(S'haversack'
p3175
I3
tp3176
a(S'lower deck'
p3177
I3
tp3178
a(S'urbanization'
p3179
I3
tp3180
a(S'luggage rack'
p3181
I3
tp3182
a(S'smoke escape'
p3183
I3
tp3184
a(S'power box'
p3185
I3
tp3186
a(S'numbers'
p3187
I3
tp3188
a(S'raft'
p3189
I3
tp3190
a(S'pressure cooker'
p3191
I3
tp3192
a(S'precision balance'
p3193
I3
tp3194
a(S'service elevator'
p3195
I3
tp3196
a(S'cable car'
p3197
I3
tp3198
a(S'ribbon'
p3199
I3
tp3200
a(S'storage rack'
p3201
I3
tp3202
a(S'straw bales'
p3203
I3
tp3204
a(S'sport bag'
p3205
I3
tp3206
a(S'ski trail'
p3207
I3
tp3208
a(S'cove'
p3209
I3
tp3210
a(S'slotted spoon'
p3211
I3
tp3212
a(S'ax'
p3213
I3
tp3214
a(S'bookstall'
p3215
I3
tp3216
a(S'christmas tree'
p3217
I3
tp3218
a(S'earphones'
p3219
I3
tp3220
a(S'breakwater'
p3221
I3
tp3222
a(S'sea star'
p3223
I3
tp3224
a(S'power'
p3225
I3
tp3226
a(S'server'
p3227
I3
tp3228
a(S'fryer'
p3229
I3
tp3230
a(S'pencil case'
p3231
I3
tp3232
a(S'sinkhole'
p3233
I3
tp3234
a(S'dressing screen'
p3235
I3
tp3236
a(S'mound'
p3237
I3
tp3238
a(S'starting gate'
p3239
I3
tp3240
a(S'dish towel'
p3241
I3
tp3242
a(S'instrument control'
p3243
I3
tp3244
a(S'funicular'
p3245
I3
tp3246
a(S'gull'
p3247
I3
tp3248
a(S'spoons'
p3249
I3
tp3250
a(S'vanity bag'
p3251
I3
tp3252
a(S'pencils'
p3253
I3
tp3254
a(S'utility panel'
p3255
I3
tp3256
a(S'pastry'
p3257
I3
tp3258
a(S'knives'
p3259
I3
tp3260
a(S'coats'
p3261
I3
tp3262
a(S'guardhouse'
p3263
I3
tp3264
a(S'turtle'
p3265
I3
tp3266
a(S'wagon'
p3267
I3
tp3268
a(S'bowling alleys'
p3269
I3
tp3270
a(S'tramway'
p3271
I3
tp3272
a(S'laundry'
p3273
I3
tp3274
a(S'horizontal bar'
p3275
I3
tp3276
a(S'freezer'
p3277
I3
tp3278
a(S'silos'
p3279
I3
tp3280
a(S'movie poster'
p3281
I3
tp3282
a(S'souk'
p3283
I3
tp3284
a(S'rocking horse'
p3285
I3
tp3286
a(S'power meter'
p3287
I3
tp3288
a(S'gourd'
p3289
I3
tp3290
a(S'pole sign'
p3291
I3
tp3292
a(S'drawings'
p3293
I3
tp3294
a(S'bonfire'
p3295
I3
tp3296
a(S'ping pong paddle'
p3297
I3
tp3298
a(S'paper weight'
p3299
I3
tp3300
a(S'stockings'
p3301
I3
tp3302
a(S'ground shrubs'
p3303
I3
tp3304
a(S'hams'
p3305
I3
tp3306
a(S'panels'
p3307
I3
tp3308
a(S'dollhouse'
p3309
I3
tp3310
a(S'fireworks'
p3311
I3
tp3312
a(S'menu card'
p3313
I3
tp3314
a(S'steel beam'
p3315
I3
tp3316
a(S'alga'
p3317
I3
tp3318
a(S'fog'
p3319
I3
tp3320
a(S'carts'
p3321
I3
tp3322
a(S'gym machine'
p3323
I3
tp3324
a(S'photo backdrops'
p3325
I3
tp3326
a(S'dvds box'
p3327
I3
tp3328
a(S'spanner'
p3329
I3
tp3330
a(S'background'
p3331
I3
tp3332
a(S'chairs lift'
p3333
I3
tp3334
a(S'brake pedal'
p3335
I3
tp3336
a(S'cds box'
p3337
I3
tp3338
a(S'garlic'
p3339
I3
tp3340
a(S'tops'
p3341
I3
tp3342
a(S'ski pole'
p3343
I3
tp3344
a(S'coffee grinder'
p3345
I3
tp3346
a(S'car wash'
p3347
I3
tp3348
a(S'flight deck'
p3349
I3
tp3350
a(S'key pad'
p3351
I3
tp3352
a(S'postbox'
p3353
I3
tp3354
a(S'dog dish'
p3355
I3
tp3356
a(S'sunglasses'
p3357
I3
tp3358
a(S'bomb'
p3359
I3
tp3360
a(S'swamp'
p3361
I3
tp3362
a(S'valance'
p3363
I3
tp3364
a(S'mine'
p3365
I3
tp3366
a(S'killer whale'
p3367
I3
tp3368
a(S'ditch'
p3369
I3
tp3370
a(S'grandfather clock'
p3371
I3
tp3372
a(S'side'
p3373
I3
tp3374
a(S'sprays'
p3375
I3
tp3376
a(S'chair lift'
p3377
I3
tp3378
a(S'slicer'
p3379
I3
tp3380
a(S'clutch pedal'
p3381
I3
tp3382
a(S'quilt'
p3383
I3
tp3384
a(S'whisk'
p3385
I3
tp3386
a(S'toilet kit'
p3387
I3
tp3388
a(S'construction equipment'
p3389
I3
tp3390
a(S'plastic cups'
p3391
I2
tp3392
a(S'veil'
p3393
I2
tp3394
a(S'dental swivel chair'
p3395
I2
tp3396
a(S'lance'
p3397
I2
tp3398
a(S'fruit bowl'
p3399
I2
tp3400
a(S'ticket vending machine'
p3401
I2
tp3402
a(S'boardwalk'
p3403
I2
tp3404
a(S'tissues'
p3405
I2
tp3406
a(S'piece'
p3407
I2
tp3408
a(S'pot rack'
p3409
I2
tp3410
a(S'baby walker'
p3411
I2
tp3412
a(S'refuge'
p3413
I2
tp3414
a(S'pot pen'
p3415
I2
tp3416
a(S'bow window'
p3417
I2
tp3418
a(S'site hut'
p3419
I2
tp3420
a(S'panes'
p3421
I2
tp3422
a(S'trolley drawers'
p3423
I2
tp3424
a(S'candy bags'
p3425
I2
tp3426
a(S'shower faucet'
p3427
I2
tp3428
a(S'rocket'
p3429
I2
tp3430
a(S'bananas'
p3431
I2
tp3432
a(S'frying pans'
p3433
I2
tp3434
a(S'surfboard'
p3435
I2
tp3436
a(S'mosaic'
p3437
I2
tp3438
a(S'cold store'
p3439
I2
tp3440
a(S'tomatoes'
p3441
I2
tp3442
a(S'folding chairs'
p3443
I2
tp3444
a(S'call buttons'
p3445
I2
tp3446
a(S'feather'
p3447
I2
tp3448
a(S'rain gutter'
p3449
I2
tp3450
a(S'dolmen'
p3451
I2
tp3452
a(S'wheelhouse'
p3453
I2
tp3454
a(S'bear'
p3455
I2
tp3456
a(S'stripes'
p3457
I2
tp3458
a(S'horse carousel'
p3459
I2
tp3460
a(S'kite'
p3461
I2
tp3462
a(S'stuffed animal'
p3463
I2
tp3464
a(S'baseboards'
p3465
I2
tp3466
a(S'mechanism'
p3467
I2
tp3468
a(S'cranes'
p3469
I2
tp3470
a(S'roulette'
p3471
I2
tp3472
a(S'walking stick'
p3473
I2
tp3474
a(S'washbasin chair'
p3475
I2
tp3476
a(S'monkey'
p3477
I2
tp3478
a(S'ipod'
p3479
I2
tp3480
a(S'swimming costume'
p3481
I2
tp3482
a(S'snowboard shape'
p3483
I2
tp3484
a(S'laptop bag'
p3485
I2
tp3486
a(S'equestrian obstacle'
p3487
I2
tp3488
a(S'tubing'
p3489
I2
tp3490
a(S'juice machine'
p3491
I2
tp3492
a(S'skates'
p3493
I2
tp3494
a(S'deck boat'
p3495
I2
tp3496
a(S'glass box'
p3497
I2
tp3498
a(S'industrial machine'
p3499
I2
tp3500
a(S'pastries'
p3501
I2
tp3502
a(S'scoop'
p3503
I2
tp3504
a(S'sculptures'
p3505
I2
tp3506
a(S'tomato'
p3507
I2
tp3508
a(S'blocks'
p3509
I2
tp3510
a(S'furnace'
p3511
I2
tp3512
a(S'cornice'
p3513
I2
tp3514
a(S'toaster oven'
p3515
I2
tp3516
a(S'paints'
p3517
I2
tp3518
a(S'missile'
p3519
I2
tp3520
a(S'belt loader'
p3521
I2
tp3522
a(S'nest'
p3523
I2
tp3524
a(S'price list'
p3525
I2
tp3526
a(S'recycling materials'
p3527
I2
tp3528
a(S'stethoscope'
p3529
I2
tp3530
a(S'leg'
p3531
I2
tp3532
a(S'paintings'
p3533
I2
tp3534
a(S'ice wall'
p3535
I2
tp3536
a(S'crosses'
p3537
I2
tp3538
a(S'snowshoe'
p3539
I2
tp3540
a(S'pad of paper'
p3541
I2
tp3542
a(S'walker'
p3543
I2
tp3544
a(S'kitchen utensils'
p3545
I2
tp3546
a(S'control room'
p3547
I2
tp3548
a(S'hay bale'
p3549
I2
tp3550
a(S'switchboard'
p3551
I2
tp3552
a(S'postes'
p3553
I2
tp3554
a(S'sock'
p3555
I2
tp3556
a(S'pelts'
p3557
I2
tp3558
a(S'trash bags'
p3559
I2
tp3560
a(S'tablecloths'
p3561
I2
tp3562
a(S'walrus'
p3563
I2
tp3564
a(S'desk chair'
p3565
I2
tp3566
a(S'silver bird statue'
p3567
I2
tp3568
a(S'dryer'
p3569
I2
tp3570
a(S'video game'
p3571
I2
tp3572
a(S'oil tubes'
p3573
I2
tp3574
a(S'pyjamas'
p3575
I2
tp3576
a(S'bear cutout'
p3577
I2
tp3578
a(S'oriental lantern'
p3579
I2
tp3580
a(S'freight train'
p3581
I2
tp3582
a(S'loom'
p3583
I2
tp3584
a(S'cigarette packet'
p3585
I2
tp3586
a(S'squirrel'
p3587
I2
tp3588
a(S'partition wall'
p3589
I2
tp3590
a(S'valley urban'
p3591
I2
tp3592
a(S'church'
p3593
I2
tp3594
a(S'bassinet'
p3595
I2
tp3596
a(S'glove compartment'
p3597
I2
tp3598
a(S'spiral staircase'
p3599
I2
tp3600
a(S'sheeps'
p3601
I2
tp3602
a(S'storage jar'
p3603
I2
tp3604
a(S'buoys'
p3605
I2
tp3606
a(S'supporting iron metal'
p3607
I2
tp3608
a(S'metal structure'
p3609
I2
tp3610
a(S'paperweight'
p3611
I2
tp3612
a(S'safety net'
p3613
I2
tp3614
a(S'weapons'
p3615
I2
tp3616
a(S'chinese lantern'
p3617
I2
tp3618
a(S'tubes'
p3619
I2
tp3620
a(S'peaked cap'
p3621
I2
tp3622
a(S'eggs'
p3623
I2
tp3624
a(S'moving walkway'
p3625
I2
tp3626
a(S'trowel'
p3627
I2
tp3628
a(S'showers'
p3629
I2
tp3630
a(S'exercise bench'
p3631
I2
tp3632
a(S'lawn mower'
p3633
I2
tp3634
a(S'music box'
p3635
I2
tp3636
a(S'trolly'
p3637
I2
tp3638
a(S'store'
p3639
I2
tp3640
a(S'soaps'
p3641
I2
tp3642
a(S'spinach'
p3643
I2
tp3644
a(S'strongbox'
p3645
I2
tp3646
a(S'gas meter'
p3647
I2
tp3648
a(S'power lines'
p3649
I2
tp3650
a(S'backpacks'
p3651
I2
tp3652
a(S'electricity meter'
p3653
I2
tp3654
a(S'level'
p3655
I2
tp3656
a(S'nuclear reactor'
p3657
I2
tp3658
a(S'life preserver'
p3659
I2
tp3660
a(S'lighting'
p3661
I2
tp3662
a(S'medical machine'
p3663
I2
tp3664
a(S'goat'
p3665
I2
tp3666
a(S'ledges'
p3667
I2
tp3668
a(S'floor light'
p3669
I2
tp3670
a(S'truck crane'
p3671
I2
tp3672
a(S'champagne bucket'
p3673
I2
tp3674
a(S'foot rest'
p3675
I2
tp3676
a(S'rowing machine'
p3677
I2
tp3678
a(S'ceiling decor'
p3679
I2
tp3680
a(S'night light'
p3681
I2
tp3682
a(S'threads'
p3683
I2
tp3684
a(S'barrack buildings'
p3685
I2
tp3686
a(S'minced meat'
p3687
I2
tp3688
a(S'paper rack'
p3689
I2
tp3690
a(S'roots'
p3691
I2
tp3692
a(S'linens'
p3693
I2
tp3694
a(S'paper box'
p3695
I2
tp3696
a(S'tea set'
p3697
I2
tp3698
a(S'bracelets'
p3699
I2
tp3700
a(S'gas cap'
p3701
I2
tp3702
a(S'appliance'
p3703
I2
tp3704
a(S'hairpieces'
p3705
I2
tp3706
a(S'cheese dish'
p3707
I2
tp3708
a(S'mobile home'
p3709
I2
tp3710
a(S'photo album'
p3711
I2
tp3712
a(S'can opener'
p3713
I2
tp3714
a(S'earring'
p3715
I2
tp3716
a(S'drawing board'
p3717
I2
tp3718
a(S'slice'
p3719
I2
tp3720
a(S'cd box'
p3721
I2
tp3722
a(S'water lily'
p3723
I2
tp3724
a(S'professional degree'
p3725
I2
tp3726
a(S'grid'
p3727
I2
tp3728
a(S'photocopier'
p3729
I2
tp3730
a(S'bamboo canes'
p3731
I2
tp3732
a(S'post box'
p3733
I2
tp3734
a(S'paper napkins'
p3735
I2
tp3736
a(S'rest'
p3737
I2
tp3738
a(S'milestone'
p3739
I2
tp3740
a(S'ice ground'
p3741
I2
tp3742
a(S'joystick'
p3743
I2
tp3744
a(S'booths'
p3745
I2
tp3746
a(S'hens'
p3747
I2
tp3748
a(S'vest'
p3749
I2
tp3750
a(S'cock'
p3751
I2
tp3752
a(S'scratching post'
p3753
I2
tp3754
a(S'squeezer'
p3755
I2
tp3756
a(S'crumb'
p3757
I2
tp3758
a(S'squash'
p3759
I2
tp3760
a(S'restroom'
p3761
I2
tp3762
a(S'notice'
p3763
I2
tp3764
a(S'hot mitt'
p3765
I2
tp3766
a(S'andirons'
p3767
I2
tp3768
a(S'viewpoint'
p3769
I2
tp3770
a(S'developing machine'
p3771
I2
tp3772
a(S'guitar cover'
p3773
I2
tp3774
a(S'golf green'
p3775
I2
tp3776
a(S'threshold'
p3777
I2
tp3778
a(S'furnace room'
p3779
I2
tp3780
a(S'towel rail'
p3781
I2
tp3782
a(S'pile of trash'
p3783
I2
tp3784
a(S'sheets'
p3785
I2
tp3786
a(S'butterfly'
p3787
I2
tp3788
a(S'adding machine'
p3789
I2
tp3790
a(S'saw'
p3791
I2
tp3792
a(S'private place'
p3793
I2
tp3794
a(S'dish drainer'
p3795
I2
tp3796
a(S'pendant lamps'
p3797
I2
tp3798
a(S'cheese'
p3799
I2
tp3800
a(S'porch rail'
p3801
I2
tp3802
a(S'card display'
p3803
I2
tp3804
a(S'steam roller'
p3805
I2
tp3806
a(S'shield'
p3807
I2
tp3808
a(S'crock pot'
p3809
I2
tp3810
a(S'pins'
p3811
I2
tp3812
a(S'sugar packet'
p3813
I2
tp3814
a(S'mailboxes'
p3815
I2
tp3816
a(S'dropper'
p3817
I2
tp3818
a(S'fitting room'
p3819
I2
tp3820
a(S'window frame'
p3821
I2
tp3822
a(S'torrent water'
p3823
I2
tp3824
a(S'drain plug'
p3825
I2
tp3826
a(S'paint pot'
p3827
I2
tp3828
a(S'ornamental structure'
p3829
I2
tp3830
a(S'bus station'
p3831
I2
tp3832
a(S'projector rack'
p3833
I2
tp3834
a(S'makeup'
p3835
I2
tp3836
a(S'spanners'
p3837
I2
tp3838
a(S'snacks'
p3839
I2
tp3840
a(S'cue place'
p3841
I2
tp3842
a(S'crater'
p3843
I2
tp3844
a(S'waterscape'
p3845
I2
tp3846
a(S'sopping cart'
p3847
I2
tp3848
a(S'pie spinach'
p3849
I2
tp3850
a(S'beds'
p3851
I2
tp3852
a(S'football'
p3853
I2
tp3854
a(S'saucepans'
p3855
I2
tp3856
a(S'water pump'
p3857
I2
tp3858
a(S'spray can'
p3859
I2
tp3860
a(S'head'
p3861
I2
tp3862
a(S'goldfish bowl'
p3863
I2
tp3864
a(S'climbing frame'
p3865
I2
tp3866
a(S'trampoline'
p3867
I2
tp3868
a(S'scarecrows'
p3869
I2
tp3870
a(S'meters'
p3871
I2
tp3872
a(S'paper rolls'
p3873
I2
tp3874
a(S'skulls'
p3875
I2
tp3876
a(S'gatehouse'
p3877
I2
tp3878
a(S'intercom'
p3879
I2
tp3880
a(S'basketball'
p3881
I2
tp3882
a(S'hay'
p3883
I2
tp3884
a(S'photo'
p3885
I2
tp3886
a(S'quicksand'
p3887
I2
tp3888
a(S'football stadium'
p3889
I2
tp3890
a(S'hearth'
p3891
I2
tp3892
a(S'underground station'
p3893
I2
tp3894
a(S'cell door'
p3895
I2
tp3896
a(S'ring binder'
p3897
I2
tp3898
a(S'taper'
p3899
I2
tp3900
a(S'catch'
p3901
I2
tp3902
a(S'loft'
p3903
I2
tp3904
a(S'sponges'
p3905
I2
tp3906
a(S'chimneys'
p3907
I2
tp3908
a(S'flyscreen'
p3909
I2
tp3910
a(S'drawing tables'
p3911
I2
tp3912
a(S'scourer'
p3913
I2
tp3914
a(S'plants pot'
p3915
I2
tp3916
a(S'wire mesh'
p3917
I2
tp3918
a(S'plats'
p3919
I2
tp3920
a(S'lodge'
p3921
I2
tp3922
a(S'set square'
p3923
I2
tp3924
a(S'icicles'
p3925
I2
tp3926
a(S'gear shift'
p3927
I2
tp3928
a(S'runner'
p3929
I2
tp3930
a(S'donkey'
p3931
I2
tp3932
a(S'trolley basket'
p3933
I2
tp3934
a(S'stocking'
p3935
I2
tp3936
a(S'stone slab'
p3937
I2
tp3938
a(S'wicker basket'
p3939
I2
tp3940
a(S'control cabinet'
p3941
I2
tp3942
a(S'top'
p3943
I2
tp3944
a(S'ice field'
p3945
I2
tp3946
a(S'gear wheel'
p3947
I2
tp3948
a(S'light pole'
p3949
I2
tp3950
a(S'ice cream machine'
p3951
I2
tp3952
a(S'spray bottle'
p3953
I2
tp3954
a(S'hot air balloon'
p3955
I2
tp3956
a(S'potatoes'
p3957
I2
tp3958
a(S'safe'
p3959
I2
tp3960
a(S'clothing rack'
p3961
I2
tp3962
a(S'extractor pipe'
p3963
I2
tp3964
a(S'autopsy table'
p3965
I2
tp3966
a(S'wagons'
p3967
I2
tp3968
a(S'comic strip'
p3969
I2
tp3970
a(S'poker'
p3971
I2
tp3972
a(S'set of pigeonholes'
p3973
I2
tp3974
a(S'weathervane'
p3975
I2
tp3976
a(S'white coat'
p3977
I2
tp3978
a(S'utility box'
p3979
I2
tp3980
a(S'obstacle'
p3981
I2
tp3982
a(S'umbrella rack'
p3983
I2
tp3984
a(S'watercraft'
p3985
I2
tp3986
a(S'button box'
p3987
I2
tp3988
a(S'escarpment'
p3989
I2
tp3990
a(S'oil lamp'
p3991
I2
tp3992
a(S'pyramid'
p3993
I2
tp3994
a(S'pen box'
p3995
I2
tp3996
a(S'exercise bikes'
p3997
I2
tp3998
a(S'railways'
p3999
I2
tp4000
a(S'slum shanties'
p4001
I2
tp4002
a(S'flip flops'
p4003
I2
tp4004
a(S'bed trolley'
p4005
I2
tp4006
a(S'straws'
p4007
I2
tp4008
a(S'paper file'
p4009
I1
tp4010
a(S'hoist'
p4011
I1
tp4012
a(S'salt pepper cellar'
p4013
I1
tp4014
a(S'entrance parking'
p4015
I1
tp4016
a(S'gap'
p4017
I1
tp4018
a(S'sweet peas'
p4019
I1
tp4020
a(S'pelota court'
p4021
I1
tp4022
a(S'treadmills'
p4023
I1
tp4024
a(S'spatulas'
p4025
I1
tp4026
a(S'pit'
p4027
I1
tp4028
a(S'sanck bar'
p4029
I1
tp4030
a(S'polythene cover'
p4031
I1
tp4032
a(S'multiple plug'
p4033
I1
tp4034
a(S'display'
p4035
I1
tp4036
a(S'cello'
p4037
I1
tp4038
a(S'winch'
p4039
I1
tp4040
a(S'mountain ledge'
p4041
I1
tp4042
a(S'courts'
p4043
I1
tp4044
a(S'training potty'
p4045
I1
tp4046
a(S'strawberries'
p4047
I1
tp4048
a(S'telephone directories'
p4049
I1
tp4050
a(S'stadium'
p4051
I1
tp4052
a(S'brochures rack'
p4053
I1
tp4054
a(S'bildings'
p4055
I1
tp4056
a(S'video-tape'
p4057
I1
tp4058
a(S'hay stacks'
p4059
I1
tp4060
a(S'maze'
p4061
I1
tp4062
a(S'deer head'
p4063
I1
tp4064
a(S'tongue'
p4065
I1
tp4066
a(S'swmming pool'
p4067
I1
tp4068
a(S'rack cue'
p4069
I1
tp4070
a(S'camels'
p4071
I1
tp4072
a(S'log holder'
p4073
I1
tp4074
a(S'shavings'
p4075
I1
tp4076
a(S'hairdressers chair'
p4077
I1
tp4078
a(S'table runners'
p4079
I1
tp4080
a(S'stuffed head'
p4081
I1
tp4082
a(S'chains'
p4083
I1
tp4084
a(S'cut slices machine'
p4085
I1
tp4086
a(S'cabbages'
p4087
I1
tp4088
a(S'snuffs'
p4089
I1
tp4090
a(S'garment bag'
p4091
I1
tp4092
a(S'hair'
p4093
I1
tp4094
a(S'stalagmites'
p4095
I1
tp4096
a(S'crock rack'
p4097
I1
tp4098
a(S'boomerang'
p4099
I1
tp4100
a(S'onion'
p4101
I1
tp4102
a(S'fence rubble'
p4103
I1
tp4104
a(S'cd stack'
p4105
I1
tp4106
a(S'vinery'
p4107
I1
tp4108
a(S'box jury'
p4109
I1
tp4110
a(S'sticky tape dispenser'
p4111
I1
tp4112
a(S'dolmens'
p4113
I1
tp4114
a(S'flashlight'
p4115
I1
tp4116
a(S'ice creme stand'
p4117
I1
tp4118
a(S'phone fax'
p4119
I1
tp4120
a(S'railway yard'
p4121
I1
tp4122
a(S'weapon'
p4123
I1
tp4124
a(S'deer antler'
p4125
I1
tp4126
a(S'sound equipment'
p4127
I1
tp4128
a(S'pestle'
p4129
I1
tp4130
a(S'id card'
p4131
I1
tp4132
a(S'units'
p4133
I1
tp4134
a(S'headlight'
p4135
I1
tp4136
a(S'index card'
p4137
I1
tp4138
a(S'sealing tape'
p4139
I1
tp4140
a(S'dental sink'
p4141
I1
tp4142
a(S'counterweight'
p4143
I1
tp4144
a(S'hardware'
p4145
I1
tp4146
a(S'bookends'
p4147
I1
tp4148
a(S'bull skull'
p4149
I1
tp4150
a(S'wood board'
p4151
I1
tp4152
a(S'baptistry'
p4153
I1
tp4154
a(S'toilet set'
p4155
I1
tp4156
a(S'digger'
p4157
I1
tp4158
a(S'pine decoration'
p4159
I1
tp4160
a(S'fabric softener'
p4161
I1
tp4162
a(S'roasting'
p4163
I1
tp4164
a(S'butchery'
p4165
I1
tp4166
a(S'paper towels dispenser'
p4167
I1
tp4168
a(S'copier'
p4169
I1
tp4170
a(S'tank top'
p4171
I1
tp4172
a(S'statues'
p4173
I1
tp4174
a(S'accordion'
p4175
I1
tp4176
a(S'music control table'
p4177
I1
tp4178
a(S'opening'
p4179
I1
tp4180
a(S'leathers'
p4181
I1
tp4182
a(S'power cord'
p4183
I1
tp4184
a(S'antler'
p4185
I1
tp4186
a(S'purses'
p4187
I1
tp4188
a(S'revolving pass'
p4189
I1
tp4190
a(S'segment'
p4191
I1
tp4192
a(S'textiles'
p4193
I1
tp4194
a(S'water bog'
p4195
I1
tp4196
a(S'powder'
p4197
I1
tp4198
a(S'safety suit'
p4199
I1
tp4200
a(S'buzzer'
p4201
I1
tp4202
a(S'saucers'
p4203
I1
tp4204
a(S'tuner'
p4205
I1
tp4206
a(S'place setting'
p4207
I1
tp4208
a(S'business card'
p4209
I1
tp4210
a(S'salt plain'
p4211
I1
tp4212
a(S'swiss chard'
p4213
I1
tp4214
a(S'canyons'
p4215
I1
tp4216
a(S'topiary trees'
p4217
I1
tp4218
a(S'screen stand'
p4219
I1
tp4220
a(S'grate'
p4221
I1
tp4222
a(S'building arena'
p4223
I1
tp4224
a(S'popcorn machine'
p4225
I1
tp4226
a(S'reaper'
p4227
I1
tp4228
a(S'bough'
p4229
I1
tp4230
a(S'dental instruments'
p4231
I1
tp4232
a(S'crank'
p4233
I1
tp4234
a(S'secateurs'
p4235
I1
tp4236
a(S'cavern'
p4237
I1
tp4238
a(S'deodorant'
p4239
I1
tp4240
a(S'clip'
p4241
I1
tp4242
a(S'kasbah'
p4243
I1
tp4244
a(S'placecard holder'
p4245
I1
tp4246
a(S'fryer basket'
p4247
I1
tp4248
a(S'laundry basket'
p4249
I1
tp4250
a(S'tumble dryers'
p4251
I1
tp4252
a(S'steel'
p4253
I1
tp4254
a(S'x-rays'
p4255
I1
tp4256
a(S'racks'
p4257
I1
tp4258
a(S'suspension rope bridge'
p4259
I1
tp4260
a(S'wooden utensils'
p4261
I1
tp4262
a(S'massage table'
p4263
I1
tp4264
a(S'screwdrivers'
p4265
I1
tp4266
a(S'puppet'
p4267
I1
tp4268
a(S'bonnet'
p4269
I1
tp4270
a(S'tennis racket'
p4271
I1
tp4272
a(S'shoe rack'
p4273
I1
tp4274
a(S'storage box'
p4275
I1
tp4276
a(S'art mannequin'
p4277
I1
tp4278
a(S'wind turbines'
p4279
I1
tp4280
a(S'sulfur mine'
p4281
I1
tp4282
a(S'steering'
p4283
I1
tp4284
a(S'dvd boxes'
p4285
I1
tp4286
a(S'underpass'
p4287
I1
tp4288
a(S'buds'
p4289
I1
tp4290
a(S'mop handle'
p4291
I1
tp4292
a(S'starting gate trolley'
p4293
I1
tp4294
a(S'truckle bed'
p4295
I1
tp4296
a(S'armor'
p4297
I1
tp4298
a(S'vaulted niche'
p4299
I1
tp4300
a(S'seesaw'
p4301
I1
tp4302
a(S'pot hanger'
p4303
I1
tp4304
a(S'shack'
p4305
I1
tp4306
a(S'roller coaster cars'
p4307
I1
tp4308
a(S'postcard display'
p4309
I1
tp4310
a(S'ride structure'
p4311
I1
tp4312
a(S'support beam'
p4313
I1
tp4314
a(S'hands'
p4315
I1
tp4316
a(S'velodrome'
p4317
I1
tp4318
a(S'park gear'
p4319
I1
tp4320
a(S'gas heater'
p4321
I1
tp4322
a(S'orange'
p4323
I1
tp4324
a(S'bridges'
p4325
I1
tp4326
a(S'trophies'
p4327
I1
tp4328
a(S'bog water'
p4329
I1
tp4330
a(S'push buttons'
p4331
I1
tp4332
a(S'fire blanket'
p4333
I1
tp4334
a(S'iron cross'
p4335
I1
tp4336
a(S'solt machine'
p4337
I1
tp4338
a(S'marsh water'
p4339
I1
tp4340
a(S'board game'
p4341
I1
tp4342
a(S'bounce seat'
p4343
I1
tp4344
a(S'necklace display'
p4345
I1
tp4346
a(S'tank lid'
p4347
I1
tp4348
a(S'twizzlers'
p4349
I1
tp4350
a(S'hangar'
p4351
I1
tp4352
a(S'trumpet'
p4353
I1
tp4354
a(S'pressure washer'
p4355
I1
tp4356
a(S'tag'
p4357
I1
tp4358
a(S'pieces'
p4359
I1
tp4360
a(S'screws box'
p4361
I1
tp4362
a(S'pine decor'
p4363
I1
tp4364
a(S'wooden structure'
p4365
I1
tp4366
a(S'cello cover'
p4367
I1
tp4368
a(S'veranda awning'
p4369
I1
tp4370
a(S'strip light'
p4371
I1
tp4372
a(S'incubator'
p4373
I1
tp4374
a(S'rackets'
p4375
I1
tp4376
a(S'deck house'
p4377
I1
tp4378
a(S'disposal plant'
p4379
I1
tp4380
a(S'certificate'
p4381
I1
tp4382
a(S'stream'
p4383
I1
tp4384
a(S'water hole'
p4385
I1
tp4386
a(S'food cart'
p4387
I1
tp4388
a(S'musical instruments'
p4389
I1
tp4390
a(S'shoji screen'
p4391
I1
tp4392
a(S'crane truck'
p4393
I1
tp4394
a(S'table base'
p4395
I1
tp4396
a(S'pig tail'
p4397
I1
tp4398
a(S'place mats'
p4399
I1
tp4400
a(S'anvil'
p4401
I1
tp4402
a(S'shellfish'
p4403
I1
tp4404
a(S'safes'
p4405
I1
tp4406
a(S'control panels'
p4407
I1
tp4408
a(S'plinth'
p4409
I1
tp4410
a(S'swinging seat'
p4411
I1
tp4412
a(S'power strip'
p4413
I1
tp4414
a(S'rocky wall'
p4415
I1
tp4416
a(S'circular saw'
p4417
I1
tp4418
a(S'gauge'
p4419
I1
tp4420
a(S'steel industry'
p4421
I1
tp4422
a(S'duster'
p4423
I1
tp4424
a(S'harbor'
p4425
I1
tp4426
a(S'verandah'
p4427
I1
tp4428
a(S'work hut'
p4429
I1
tp4430
a(S'trolleys'
p4431
I1
tp4432
a(S'painiting'
p4433
I1
tp4434
a(S'butter dish'
p4435
I1
tp4436
a(S'motorboats'
p4437
I1
tp4438
a(S'lamps'
p4439
I1
tp4440
a(S'tombs'
p4441
I1
tp4442
a(S'fish structure'
p4443
I1
tp4444
a(S'paperpile'
p4445
I1
tp4446
a(S'tart'
p4447
I1
tp4448
a(S'guard rail'
p4449
I1
tp4450
a(S'clothes stand'
p4451
I1
tp4452
a(S'cyclotron'
p4453
I1
tp4454
a(S'sewing box'
p4455
I1
tp4456
a(S'expedition'
p4457
I1
tp4458
a(S'house number'
p4459
I1
tp4460
a(S'planer'
p4461
I1
tp4462
a(S'multiple socket'
p4463
I1
tp4464
a(S'recessed light'
p4465
I1
tp4466
a(S'shutters'
p4467
I1
tp4468
a(S'textile loom'
p4469
I1
tp4470
a(S'suit'
p4471
I1
tp4472
a(S'rolls'
p4473
I1
tp4474
a(S'visit cards'
p4475
I1
tp4476
a(S'frames'
p4477
I1
tp4478
a(S'camping stove'
p4479
I1
tp4480
a(S'cd stand'
p4481
I1
tp4482
a(S'chocolates'
p4483
I1
tp4484
a(S'paper clip'
p4485
I1
tp4486
a(S'garlic cloves'
p4487
I1
tp4488
a(S'pala'
p4489
I1
tp4490
a(S'lathe'
p4491
I1
tp4492
a(S'sketch'
p4493
I1
tp4494
a(S'sleigh'
p4495
I1
tp4496
a(S'rear dash'
p4497
I1
tp4498
a(S'drilling equipment'
p4499
I1
tp4500
a(S'disks'
p4501
I1
tp4502
a(S'laboratory machines'
p4503
I1
tp4504
a(S'trap door'
p4505
I1
tp4506
a(S'bib'
p4507
I1
tp4508
a(S'stationary bicycle'
p4509
I1
tp4510
a(S'bin'
p4511
I1
tp4512
a(S'pile of junk'
p4513
I1
tp4514
a(S'seat cushion'
p4515
I1
tp4516
a(S'pillars'
p4517
I1
tp4518
a(S'work coat'
p4519
I1
tp4520
a(S'propeller'
p4521
I1
tp4522
a(S'wind chimes'
p4523
I1
tp4524
a(S'balls rack'
p4525
I1
tp4526
a(S'-'
p4527
I1
tp4528
a(S'measuring spoons'
p4529
I1
tp4530
a(S'compueter'
p4531
I1
tp4532
a(S'panelling'
p4533
I1
tp4534
a(S'necktie'
p4535
I1
tp4536
a(S'cement'
p4537
I1
tp4538
a(S'hosepipe'
p4539
I1
tp4540
a(S'ventilation shaft'
p4541
I1
tp4542
a(S'napkin rack'
p4543
I1
tp4544
a(S'toilet bag'
p4545
I1
tp4546
a(S'doorway arch'
p4547
I1
tp4548
a(S'ducks'
p4549
I1
tp4550
a(S'router'
p4551
I1
tp4552
a(S'fire alarm box'
p4553
I1
tp4554
a(S'pitchfork'
p4555
I1
tp4556
a(S'mitra'
p4557
I1
tp4558
a(S'pantheon'
p4559
I1
tp4560
a(S'vinegar jar'
p4561
I1
tp4562
a(S'fur'
p4563
I1
tp4564
a(S'potted fern'
p4565
I1
tp4566
a(S'grills'
p4567
I1
tp4568
a(S'hotel safe'
p4569
I1
tp4570
a(S'ornamental box'
p4571
I1
tp4572
a(S'mixing board'
p4573
I1
tp4574
a(S'peppers'
p4575
I1
tp4576
a(S'fire utensils'
p4577
I1
tp4578
a(S'suspenders'
p4579
I1
tp4580
a(S'iron bar'
p4581
I1
tp4582
a(S'box-file'
p4583
I1
tp4584
a(S'sweep'
p4585
I1
tp4586
a(S'cruet set'
p4587
I1
tp4588
a(S'contact lens case'
p4589
I1
tp4590
a(S'street grate'
p4591
I1
tp4592
a(S'tire seat'
p4593
I1
tp4594
a(S'belt rack'
p4595
I1
tp4596
a(S'sealing roll'
p4597
I1
tp4598
a(S'external driver'
p4599
I1
tp4600
a(S'amphora'
p4601
I1
tp4602
a(S'aviary'
p4603
I1
tp4604
a(S'gravestones'
p4605
I1
tp4606
a(S'ballots'
p4607
I1
tp4608
a(S'body'
p4609
I1
tp4610
a(S'tanker'
p4611
I1
tp4612
a(S'pot holder'
p4613
I1
tp4614
a(S'slow cooker'
p4615
I1
tp4616
a(S'indoor track'
p4617
I1
tp4618
a(S'whistle'
p4619
I1
tp4620
a(S'pectoral machine'
p4621
I1
tp4622
a(S'boulder'
p4623
I1
tp4624
a(S'letter mail'
p4625
I1
tp4626
a(S'casing interior'
p4627
I1
tp4628
a(S'tooth cleaner'
p4629
I1
tp4630
a(S'piper'
p4631
I1
tp4632
a(S'operation table'
p4633
I1
tp4634
a(S'pencil cup'
p4635
I1
tp4636
a(S'hot peppers'
p4637
I1
tp4638
a(S'picnic spot'
p4639
I1
tp4640
a(S'mace'
p4641
I1
tp4642
a(S'football trophy'
p4643
I1
tp4644
a(S'wire mower'
p4645
I1
tp4646
a(S'outhouse'
p4647
I1
tp4648
a(S'secretary table'
p4649
I1
tp4650
a(S'knobs'
p4651
I1
tp4652
a(S'trestle bridge'
p4653
I1
tp4654
a(S'camouflage'
p4655
I1
tp4656
a(S'boillers'
p4657
I1
tp4658
a(S'sun room'
p4659
I1
tp4660
a(S'music machine'
p4661
I1
tp4662
a(S'name plate'
p4663
I1
tp4664
a(S'balcony covered'
p4665
I1
tp4666
a(S'vine shoot'
p4667
I1
tp4668
a(S'ball stands'
p4669
I1
tp4670
a(S'ceiling controls'
p4671
I1
tp4672
a(S'postcard stand'
p4673
I1
tp4674
a(S'sty'
p4675
I1
tp4676
a(S'breadbasket'
p4677
I1
tp4678
a(S'colander'
p4679
I1
tp4680
a(S'disk spindle'
p4681
I1
tp4682
a(S'head deer'
p4683
I1
tp4684
a(S'trash trolley'
p4685
I1
tp4686
a(S'drapes'
p4687
I1
tp4688
a(S'cake mold'
p4689
I1
tp4690
a(S'hanging instrument'
p4691
I1
tp4692
a(S'compartment'
p4693
I1
tp4694
a(S'checkers table'
p4695
I1
tp4696
a(S'checkpoint'
p4697
I1
tp4698
a(S'cut table'
p4699
I1
tp4700
a(S'shoal'
p4701
I1
tp4702
a(S'postal card'
p4703
I1
tp4704
a(S'spillway'
p4705
I1
tp4706
a(S'bumper'
p4707
I1
tp4708
a(S'railroad tracks'
p4709
I1
tp4710
a(S'coastline'
p4711
I1
tp4712
a(S'mountain salt'
p4713
I1
tp4714
a(S'fire hose'
p4715
I1
tp4716
a(S'brewery'
p4717
I1
tp4718
a(S'storm grate'
p4719
I1
tp4720
a(S'gas well'
p4721
I1
tp4722
a(S'pigeon'
p4723
I1
tp4724
a(S'judge table'
p4725
I1
tp4726
a(S'clams'
p4727
I1
tp4728
a(S'piping'
p4729
I1
tp4730
a(S'posters pole'
p4731
I1
tp4732
a(S'swimsuit'
p4733
I1
tp4734
a(S'abacus'
p4735
I1
tp4736
a(S'underground'
p4737
I1
tp4738
a(S'tape measure'
p4739
I1
tp4740
a(S'utensils rack'
p4741
I1
tp4742
a(S'asymmetric bars'
p4743
I1
tp4744
a(S'coconuts'
p4745
I1
tp4746
a(S'shower shelf'
p4747
I1
tp4748
a(S'ski lift pole'
p4749
I1
tp4750
a(S'light tower'
p4751
I1
tp4752
a(S'half globe'
p4753
I1
tp4754
a(S'oil tube'
p4755
I1
tp4756
a(S'chicks'
p4757
I1
tp4758
a(S'sewer cover'
p4759
I1
tp4760
a(S'clothes horse'
p4761
I1
tp4762
a(S'dvd players'
p4763
I1
tp4764
a(S'workstation'
p4765
I1
tp4766
a(S'nail brush'
p4767
I1
tp4768
a(S'floating bridge'
p4769
I1
tp4770
a(S'metal profiles'
p4771
I1
tp4772
a(S'music devices'
p4773
I1
tp4774
a(S'phone jack'
p4775
I1
tp4776
a(S'toilet paper rolls'
p4777
I1
tp4778
a(S'menus'
p4779
I1
tp4780
a(S'utility covers'
p4781
I1
tp4782
a(S'iv bag'
p4783
I1
tp4784
a(S'cars scraping'
p4785
I1
tp4786
a(S'string'
p4787
I1
tp4788
a(S'hanger hook'
p4789
I1
tp4790
a(S'highway bridge'
p4791
I1
tp4792
a(S'seat belt clipper'
p4793
I1
tp4794
a(S'shark'
p4795
I1
tp4796
a(S'fishing pole'
p4797
I1
tp4798
a(S'laminating machine'
p4799
I1
tp4800
a(S'motion sensor'
p4801
I1
tp4802
a(S'caca'
p4803
I1
tp4804
a(S'chopstick'
p4805
I1
tp4806
a(S'megaphone'
p4807
I1
tp4808
a(S'odometer'
p4809
I1
tp4810
a(S'silver canister'
p4811
I1
tp4812
a(S'casket'
p4813
I1
tp4814
a(S'suspensions'
p4815
I1
tp4816
a(S'security light'
p4817
I1
tp4818
a(S'electrical device'
p4819
I1
tp4820
a(S'pick'
p4821
I1
tp4822
a(S'security cameras'
p4823
I1
tp4824
a(S'moon decoration'
p4825
I1
tp4826
a(S'caravans'
p4827
I1
tp4828
a(S'head sport'
p4829
I1
tp4830
a(S'cable railway'
p4831
I1
tp4832
a(S'rack tool'
p4833
I1
tp4834
a(S'flute'
p4835
I1
tp4836
a(S'snowy mountain pass'
p4837
I1
tp4838
a(S'twigs'
p4839
I1
tp4840
a(S'joists'
p4841
I1
tp4842
a(S'pinecones'
p4843
I1
tp4844
a(S'screwdriver'
p4845
I1
tp4846
a(S'hay rolls'
p4847
I1
tp4848
a(S'fax'
p4849
I1
tp4850
a(S'water mist'
p4851
I1
tp4852
a(S'pool bar'
p4853
I1
tp4854
a(S'water machine'
p4855
I1
tp4856
a(S'tinsel'
p4857
I1
tp4858
a(S'disk'
p4859
I1
tp4860
a(S'roadroller'
p4861
I1
tp4862
a(S'tissue dispenser'
p4863
I1
tp4864
a(S'pool triangle'
p4865
I1
tp4866
a(S'checkers pieces'
p4867
I1
tp4868
a(S'crane scrapping'
p4869
I1
tp4870
a(S'peak'
p4871
I1
tp4872
a(S'houseboat'
p4873
I1
tp4874
a(S'storage'
p4875
I1
tp4876
a(S'showerhead'
p4877
I1
tp4878
a(S'sawhorse'
p4879
I1
tp4880
a(S'planetarium'
p4881
I1
tp4882
a(S'traffic marker'
p4883
I1
tp4884
a(S'deer'
p4885
I1
tp4886
a(S'netting'
p4887
I1
tp4888
a(S'rowing boat'
p4889
I1
tp4890
a(S'spice'
p4891
I1
tp4892
a(S'steps machine'
p4893
I1
tp4894
a(S'electronic organ'
p4895
I1
tp4896
a(S'buggy'
p4897
I1
tp4898
a(S'rubber glove'
p4899
I1
tp4900
a(S'lily pads'
p4901
I1
tp4902
a(S'set office'
p4903
I1
tp4904
a(S'shells'
p4905
I1
tp4906
a(S'grater'
p4907
I1
tp4908
a(S'motorbike cart'
p4909
I1
tp4910
a(S'lithograph'
p4911
I1
tp4912
a(S'champagne stand'
p4913
I1
tp4914
a(S'industry'
p4915
I1
tp4916
a(S'radiography'
p4917
I1
tp4918
a(S'throw'
p4919
I1
tp4920
a(S'gaming table'
p4921
I1
tp4922
a(S'pool bass'
p4923
I1
tp4924
a(S'flusher'
p4925
I1
tp4926
a(S'ceramic ware'
p4927
I1
tp4928
a(S'telephone pole'
p4929
I1
tp4930
a(S'gramophone'
p4931
I1
tp4932
a(S'football table'
p4933
I1
tp4934
a(S'gooses'
p4935
I1
tp4936
a(S'rolling mill'
p4937
I1
tp4938
a(S'plastic sheet'
p4939
I1
tp4940
a(S'ring bell'
p4941
I1
tp4942
a(S'chainsaw'
p4943
I1
tp4944
a(S'mop'
p4945
I1
tp4946
a(S'docks'
p4947
I1
tp4948
a(S'white mark'
p4949
I1
tp4950
a(S'steam vase'
p4951
I1
tp4952
a(S'dipper'
p4953
I1
tp4954
a(S'rose'
p4955
I1
tp4956
a(S'generator'
p4957
I1
tp4958
a(S'snowboarder'
p4959
I1
tp4960
a(S'mirrors'
p4961
I1
tp4962
a(S'kitchen towel'
p4963
I1
tp4964
a(S'griddle'
p4965
I1
tp4966
a(S'troller bin'
p4967
I1
tp4968
a(S'christmas lights'
p4969
I1
tp4970
a(S'bagpipes'
p4971
I1
tp4972
a(S'doble door'
p4973
I1
tp4974
a(S'walkie talkie'
p4975
I1
tp4976
a(S'cymbal'
p4977
I1
tp4978
a(S'foam'
p4979
I1
tp4980
a(S'pack bags'
p4981
I1
tp4982
a(S'lamp cord'
p4983
I1
tp4984
a(S'pad'
p4985
I1
tp4986
a(S'compact discs'
p4987
I1
tp4988
a(S'test tubes'
p4989
I1
tp4990
a(S'wireless phone'
p4991
I1
tp4992
a(S'refinery'
p4993
I1
tp4994
a(S'air machine'
p4995
I1
tp4996
a(S'hanging utensils'
p4997
I1
tp4998
a(S'nunchaku'
p4999
I1
tp5000
a(S'tray rack'
p5001
I1
tp5002
a(S'cords'
p5003
I1
tp5004
a(S'autoclave'
p5005
I1
tp5006
a(S'folding table'
p5007
I1
tp5008
a(S'cabins'
p5009
I1
tp5010
a(S'sand track'
p5011
I1
tp5012
a(S'solar panel'
p5013
I1
tp5014
a(S'roulette table'
p5015
I1
tp5016
a(S'solar panels'
p5017
I1
tp5018
a(S'quonset huts'
p5019
I1
tp5020
a(S'chorizo'
p5021
I1
tp5022
a(S'wall clock'
p5023
I1
tp5024
a(S'meat hooks'
p5025
I1
tp5026
a(S'textile mill'
p5027
I1
tp5028
a(S'comb'
p5029
I1
tp5030
a(S'water valve'
p5031
I1
tp5032
a(S'large fork'
p5033
I1
tp5034
a(S'awards'
p5035
I1
tp5036
a(S'offices'
p5037
I1
tp5038
a(S'supermarket'
p5039
I1
tp5040
a(S'bass drum'
p5041
I1
tp5042
a(S'razor cut hair'
p5043
I1
tp5044
a(S'dog bed'
p5045
I1
tp5046
a(S'semi-flush mount lights'
p5047
I1
tp5048
a(S'filing cabinets'
p5049
I1
tp5050
a(S'incinerator'
p5051
I1
tp5052
a(S'curbstone'
p5053
I1
tp5054
a(S'hand trolley'
p5055
I1
tp5056
a(S'distaff'
p5057
I1
tp5058
a(S'cloak'
p5059
I1
tp5060
a(S'sinkhole water'
p5061
I1
tp5062
a(S'shooting pad'
p5063
I1
tp5064
a(S'dishcloths'
p5065
I1
tp5066
a(S'menu display'
p5067
I1
tp5068
a(S'reed'
p5069
I1
tp5070
a(S'rock formations'
p5071
I1
tp5072
a(S'power line'
p5073
I1
tp5074
a(S'file boxes'
p5075
I1
tp5076
a(S'gas bottle'
p5077
I1
tp5078
a(S'note'
p5079
I1
tp5080
a(S'spices rack'
p5081
I1
tp5082
a(S'cigarettes'
p5083
I1
tp5084
a(S'industrial plant'
p5085
I1
tp5086
a(S'trolley tools'
p5087
I1
tp5088
a(S'apples'
p5089
I1
tp5090
a(S'printed matter'
p5091
I1
tp5092
a(S'chute'
p5093
I1
tp5094
a(S'porexpan board'
p5095
I1
tp5096
a(S'starfish'
p5097
I1
tp5098
a(S'flagstones'
p5099
I1
tp5100
a(S'slides'
p5101
I1
tp5102
a(S'street wires'
p5103
I1
tp5104
a(S'cold storage door'
p5105
I1
tp5106
a(S'mountain terraces'
p5107
I1
tp5108
a(S'bolt'
p5109
I1
tp5110
a(S'sand hill'
p5111
I1
tp5112
a(S'crib'
p5113
I1
tp5114
a(S'outhouse wc'
p5115
I1
tp5116
a(S'office window'
p5117
I1
tp5118
a(S'electrical substation'
p5119
I1
tp5120
a(S'model dinosaur'
p5121
I1
tp5122
a(S'carp'
p5123
I1
tp5124
a(S'wood box'
p5125
I1
tp5126
a(S'columbarium'
p5127
I1
tp5128
a(S'processing machine'
p5129
I1
tp5130
a(S'raw disposal basket'
p5131
I1
tp5132
a(S'ice cream'
p5133
I1
tp5134
a(S'spectacle-case'
p5135
I1
tp5136
a(S'plant stand'
p5137
I1
tp5138
a(S'torch'
p5139
I1
tp5140
a(S'hall'
p5141
I1
tp5142
a(S'servers'
p5143
I1
tp5144
a(S'records'
p5145
I1
tp5146
a(S'cutter'
p5147
I1
tp5148
a(S'steel box'
p5149
I1
tp5150
a(S'maps'
p5151
I1
tp5152
a(S'birds'
p5153
I1
tp5154
a(S'pigsty'
p5155
I1
tp5156
a(S'estuary'
p5157
I1
tp5158
a(S'stilt'
p5159
I1
tp5160
a(S'beach wrap'
p5161
I1
tp5162
a(S'coffee cups'
p5163
I1
tp5164
a(S'water dispenser'
p5165
I1
tp5166
a(S'bread tray'
p5167
I1
tp5168
a(S'portfolio'
p5169
I1
tp5170
a(S'loaves'
p5171
I1
tp5172
a(S'mobile conveyor'
p5173
I1
tp5174
a(S'organizer'
p5175
I1
tp5176
a(S'paint can'
p5177
I1
tp5178
a(S'garlics'
p5179
I1
tp5180
a(S'overpass'
p5181
I1
tp5182
a(S'dvds rack'
p5183
I1
tp5184
a(S'toilete kit'
p5185
I1
tp5186
a(S'paint box'
p5187
I1
tp5188
a(S'tundra'
p5189
I1
tp5190
a(S'chairs desk'
p5191
I1
tp5192
a(S'pavilions'
p5193
I1
tp5194
a(S'steel wire'
p5195
I1
tp5196
a(S'airport cart'
p5197
I1
tp5198
a(S'breaker box'
p5199
I1
tp5200
a(S'ember'
p5201
I1
tp5202
a(S'sledgehammer'
p5203
I1
tp5204
a(S'dry dock'
p5205
I1
tp5206
a(S'apple'
p5207
I1
tp5208
a(S'snowboard'
p5209
I1
tp5210
a(S'x-rays bed'
p5211
I1
tp5212
a(S'meat pieces'
p5213
I1
tp5214
a(S'cloth material'
p5215
I1
tp5216
a(S'carpets'
p5217
I1
tp5218
a(S'support pole'
p5219
I1
tp5220
a(S'cd rack'
p5221
I1
tp5222
a(S'bath sponge'
p5223
I1
tp5224
a(S'sewer drain'
p5225
I1
tp5226
a(S'sieve'
p5227
I1
tp5228
a(S'mussels'
p5229
I1
tp5230
a(S'supplies'
p5231
I1
tp5232
a(S'motion detector'
p5233
I1
tp5234
a(S'meter box'
p5235
I1
tp5236
a(S'coffee cup rack'
p5237
I1
tp5238
a(S'lever'
p5239
I1
tp5240
a(S'seat base'
p5241
I1
tp5242
a(S'posts'
p5243
I1
tp5244
a(S'coat stand'
p5245
I1
tp5246
a(S'cd shelf'
p5247
I1
tp5248
a(S'mouse stand'
p5249
I1
tp5250
a(S'backdrops'
p5251
I1
tp5252
a(S'soap bar'
p5253
I1
tp5254
a(S'ticket machine'
p5255
I1
tp5256
a(S'ceiling piece'
p5257
I1
tp5258
a(S'mallet'
p5259
I1
tp5260
a(S'statue piller'
p5261
I1
tp5262
a(S'toothpick'
p5263
I1
tp5264
a(S'banners'
p5265
I1
tp5266
a(S'phone charger'
p5267
I1
tp5268
a(S'rabbit'
p5269
I1
tp5270
a(S'bycicle carriage'
p5271
I1
tp5272
a(S'trailers'
p5273
I1
tp5274
a(S'fairground'
p5275
I1
tp5276
a(S'change machine'
p5277
I1
tp5278
a(S'ribbons'
p5279
I1
tp5280
a(S'hedge partial'
p5281
I1
tp5282
a(S'hobby-elephant'
p5283
I1
tp5284
a(S'cobbles'
p5285
I1
tp5286
a(S'minar'
p5287
I1
tp5288
a(S'wood figure'
p5289
I1
tp5290
a(S'book rack'
p5291
I1
tp5292
a(S'compas'
p5293
I1
tp5294
a(S'decoder'
p5295
I1
tp5296
a(S'red board'
p5297
I1
tp5298
a(S'snowy'
p5299
I1
tp5300
a(S'cup maker'
p5301
I1
tp5302
a(S'avocados'
p5303
I1
tp5304
a(S'message board'
p5305
I1
tp5306
a(S'boat stop'
p5307
I1
tp5308
a(S'cauldron'
p5309
I1
tp5310
a(S'oil jar'
p5311
I1
tp5312
a(S'drain vent'
p5313
I1
tp5314
a(S'seaplane'
p5315
I1
tp5316
a(S'pet bowl'
p5317
I1
tp5318
a(S'sleeping bag'
p5319
I1
tp5320
a(S'cork stopper'
p5321
I1
tp5322
a(S'ice decoration'
p5323
I1
tp5324
a(S'pliers'
p5325
I1
tp5326
a(S'fuel can'
p5327
I1
tp5328
a(S'cork'
p5329
I1
tp5330
a(S'vintage bottle filler'
p5331
I1
tp5332
a(S'tornado'
p5333
I1
tp5334
a(S'seltzer bottle'
p5335
I1
tp5336
a(S'recycling trash'
p5337
I1
tp5338
a(S'clubs'
p5339
I1
tp5340
a(S'cd player'
p5341
I1
tp5342
a(S'laboratory equipment'
p5343
I1
tp5344
a(S'hoarding'
p5345
I1
tp5346
a(S'production line'
p5347
I1
tp5348
a(S'shoulder'
p5349
I1
tp5350
a(S'large rabbit'
p5351
I1
tp5352
a(S'guitar case'
p5353
I1
tp5354
a(S'spread'
p5355
I1
tp5356
a(S'ski stand'
p5357
I1
tp5358
a(S'sunflower'
p5359
I1
tp5360
a(S'trestles'
p5361
I1
tp5362
a(S'wafers'
p5363
I1
tp5364
a(S'goggles'
p5365
I1
tp5366
a(S'ticket box'
p5367
I1
tp5368
a(S'wooden overhang'
p5369
I1
tp5370
a(S'butter'
p5371
I1
tp5372
a(S'soccer ball'
p5373
I1
tp5374
a(S'kit'
p5375
I1
tp5376
a(S'recycling plant'
p5377
I1
tp5378
a(S'pipette'
p5379
I1
tp5380
a(S'peaks'
p5381
I1
tp5382
a(S'make'
p5383
I1
tp5384
a(S'canvases'
p5385
I1
tp5386
a(S'cylinder'
p5387
I1
tp5388
a(S'ziggurat'
p5389
I1
tp5390
a(S'millrace'
p5391
I1
tp5392
a(S'laboratory machine'
p5393
I1
tp5394
a(S'mushroom'
p5395
I1
tp5396
a(S'submarine'
p5397
I1
tp5398
a(S'writing desk'
p5399
I1
tp5400
a(S'yoke'
p5401
I1
tp5402
a(S'lanterns'
p5403
I1
tp5404
a(S'milk jug'
p5405
I1
tp5406
a(S'baby weighs'
p5407
I1
tp5408
a(S'heating'
p5409
I1
tp5410
a(S'box stands'
p5411
I1
tp5412
a(S'inflatable park'
p5413
I1
tp5414
a(S'roller'
p5415
I1
tp5416
a(S'cocktail shaker'
p5417
I1
tp5418
a(S'drill rig'
p5419
I1
tp5420
a(S'rings'
p5421
I1
tp5422
a(S'pebbles'
p5423
I1
tp5424
a(S'hourglass'
p5425
I1
tp5426
a(S'extension cord'
p5427
I1
tp5428
a(S'ears'
p5429
I1
tp5430
a(S'gears'
p5431
I1
tp5432
a(S'shape'
p5433
I1
tp5434
a(S'petrol station'
p5435
I1
tp5436
a(S'inflatable train'
p5437
I1
tp5438
a(S'flowerpots'
p5439
I1
tp5440
a(S'footrest'
p5441
I1
tp5442
a(S'violoncello'
p5443
I1
tp5444
a(S'pub front'
p5445
I1
tp5446
a(S'ssign'
p5447
I1
tp5448
a(S'meat bag'
p5449
I1
tp5450
a(S'paper dispenser'
p5451
I1
tp5452
a(S'duck shelter'
p5453
I1
tp5454
a(S'pineapple'
p5455
I1
tp5456
a(S'rocker'
p5457
I1
tp5458
a(S'bracket'
p5459
I1
tp5460
a(S'folded box'
p5461
I1
tp5462
a(S'pot of herbs'
p5463
I1
tp5464
a(S'mug holder'
p5465
I1
tp5466
a(S'utility panels'
p5467
I1
tp5468
a(S'hatch'
p5469
I1
tp5470
a(S'wipe'
p5471
I1
tp5472
a(S'storm sewer'
p5473
I1
tp5474
a(S'saline solution'
p5475
I1
tp5476
a(S'ray'
p5477
I1
tp5478
a(S'petrol pumps'
p5479
I1
tp5480
a(S'notecards'
p5481
I1
tp5482
a(S'fire booth'
p5483
I1
tp5484
a(S'minaret'
p5485
I1
tp5486
a(S'shopping bag'
p5487
I1
tp5488
a(S'solar energy'
p5489
I1
tp5490
a(S'hand dryer'
p5491
I1
tp5492
a(S'paper napkin'
p5493
I1
tp5494
a(S'inflatable doll'
p5495
I1
tp5496
a(S'centrifuge'
p5497
I1
tp5498
a(S'hood'
p5499
I1
tp5500
a(S'system'
p5501
I1
tp5502
a(S'games room'
p5503
I1
tp5504
a(S'small chair'
p5505
I1
tp5506
a(S'spindle'
p5507
I1
tp5508
a(S'wooden cutlery'
p5509
I1
tp5510
a(S'hull'
p5511
I1
tp5512
a(S'turntables'
p5513
I1
tp5514
a(S'tool kit'
p5515
I1
tp5516
a(S'water spurt'
p5517
I1
tp5518
a(S'rain drain'
p5519
I1
tp5520
a(S'sliding'
p5521
I1
tp5522
a(S'file organizer'
p5523
I1
tp5524
a(S'musicians place'
p5525
I1
tp5526
a(S'crockery'
p5527
I1
tp5528
a(S'oilcloth'
p5529
I1
tp5530
a(S'tanker aircraft'
p5531
I1
tp5532
a(S'gearshift'
p5533
I1
tp5534
a(S'moose'
p5535
I1
tp5536
a(S'bitch'
p5537
I1
tp5538
a(S'flyers'
p5539
I1
tp5540
a(S'candy track'
p5541
I1
tp5542
a(S'light display'
p5543
I1
tp5544
a(S'sea water ice'
p5545
I1
tp5546
a(S'radar screen'
p5547
I1
tp5548
a(S'press'
p5549
I1
tp5550
a(S'coffee'
p5551
I1
tp5552
a(S'metal decoration'
p5553
I1
tp5554
a(S'junk pile'
p5555
I1
tp5556
a(S'pencil sharpener'
p5557
I1
tp5558
a(S'fuel tank'
p5559
I1
tp5560
a(S'chorizos'
p5561
I1
tp5562
a(S'ceramics box'
p5563
I1
tp5564
a(S'tin box'
p5565
I1
tp5566
a(S'pepper grinder'
p5567
I1
tp5568
a(S'mantle piece'
p5569
I1
tp5570
a(S'metal piping'
p5571
I1
tp5572
a(S'washing hair'
p5573
I1
tp5574
a(S'hippopotamus head'
p5575
I1
tp5576
a(S'power outlet'
p5577
I1
tp5578
a(S'pergola'
p5579
I1
tp5580
a(S'hockey table'
p5581
I1
tp5582
a(S'supporting metal'
p5583
I1
tp5584
a(S'wrenches'
p5585
I1
tp5586
a(S'welcome card'
p5587
I1
tp5588
a(S'computer console'
p5589
I1
tp5590
a(S'crackers'
p5591
I1
tp5592
a(S'runnel water'
p5593
I1
tp5594
a(S'trolley crane'
p5595
I1
tp5596
a(S'hutch'
p5597
I1
tp5598
a(S'glasses case'
p5599
I1
tp5600
a(S'turnbuckle'
p5601
I1
tp5602
a(S'pot lid'
p5603
I1
tp5604
a(S'stumps'
p5605
I1
tp5606
a(S'security cordon'
p5607
I1
tp5608
a(S'stone path'
p5609
I1
tp5610
a(S'canlendar'
p5611
I1
tp5612
a(S'utility cover'
p5613
I1
tp5614
a(S'poster board'
p5615
I1
tp5616
a(S'rescue float'
p5617
I1
tp5618
a(S'miniature sofa'
p5619
I1
tp5620
a(S'tap wrench'
p5621
I1
tp5622
a(S'cowbell'
p5623
I1
tp5624
a(S'tapes'
p5625
I1
tp5626
a(S'dustpan'
p5627
I1
tp5628
a(S'herb'
p5629
I1
tp5630
a(S'skating boots'
p5631
I1
tp5632
a(S'coasters'
p5633
I1
tp5634
a(S'hand bellows'
p5635
I1
tp5636
a(S'orchestra'
p5637
I1
tp5638
a(S'guillotine'
p5639
I1
tp5640
a(S'heliport'
p5641
I1
tp5642
a(S'sepulcher'
p5643
I1
tp5644
a(S'water filter'
p5645
I1
tp5646
a(S'ciment mixer'
p5647
I1
tp5648
a(S'placecard'
p5649
I1
tp5650
a(S'exercise machines'
p5651
I1
tp5652
a(S'cockpot'
p5653
I1
tp5654
a(S'rock wall'
p5655
I1
tp5656
a(S'plates rack'
p5657
I1
tp5658
a(S'troller'
p5659
I1
tp5660
a(S'elliptical machine'
p5661
I1
tp5662
a(S'steel chair'
p5663
I1
tp5664
a.