(dp0
I0
Vperson
p1
sI1
Vbicycle
p2
sI2
Vcar
p3
sI3
Vmotorcycle
p4
sI4
Vairplane
p5
sI5
Vbus
p6
sI6
Vtrain
p7
sI7
Vtruck
p8
sI8
Vboat
p9
sI9
Vtraffic light
p10
sI10
Vfire hydrant
p11
sI11
Vstop sign
p12
sI12
Vparking meter
p13
sI13
Vbench
p14
sI14
Vbird
p15
sI15
Vcat
p16
sI16
Vdog
p17
sI17
Vhorse
p18
sI18
Vsheep
p19
sI19
Vcow
p20
sI20
Velephant
p21
sI21
Vbear
p22
sI22
Vzebra
p23
sI23
Vgiraffe
p24
sI24
Vbackpack
p25
sI25
Vumbrella
p26
sI26
Vhandbag
p27
sI27
Vtie
p28
sI28
Vsuitcase
p29
sI29
Vfrisbee
p30
sI30
Vskis
p31
sI31
Vsnowboard
p32
sI32
Vsports ball
p33
sI33
Vkite
p34
sI34
Vbaseball bat
p35
sI35
Vbaseball glove
p36
sI36
Vskateboard
p37
sI37
Vsurfboard
p38
sI38
Vtennis racket
p39
sI39
Vbottle
p40
sI40
Vwine glass
p41
sI41
Vcup
p42
sI42
Vfork
p43
sI43
Vknife
p44
sI44
Vspoon
p45
sI45
Vbowl
p46
sI46
Vbanana
p47
sI47
Vapple
p48
sI48
Vsandwich
p49
sI49
Vorange
p50
sI50
Vbroccoli
p51
sI51
Vcarrot
p52
sI52
Vhot dog
p53
sI53
Vpizza
p54
sI54
Vdonut
p55
sI55
Vcake
p56
sI56
Vchair
p57
sI57
Vcouch
p58
sI58
Vpotted plant
p59
sI59
Vbed
p60
sI60
Vdining table
p61
sI61
Vtoilet
p62
sI62
Vtv
p63
sI63
Vlaptop
p64
sI64
Vmouse
p65
sI65
Vremote
p66
sI66
Vkeyboard
p67
sI67
Vcell phone
p68
sI68
Vmicrowave
p69
sI69
Voven
p70
sI70
Vtoaster
p71
sI71
Vsink
p72
sI72
Vrefrigerator
p73
sI73
Vbook
p74
sI74
Vclock
p75
sI75
Vvase
p76
sI76
Vscissors
p77
sI77
Vteddy bear
p78
sI78
Vhair drier
p79
sI79
Vtoothbrush
p80
sI80
S'void'
p81
s.